 odbc_bindings

 Timestamp is 5b02c3fc (Mon May 21 22:05:00 2018)

 Preferred load address is 0000000180000000

 Start         Length     Name                   Class
 0001:00000000 00000100H .text$di                CODE
 0001:00000100 000225f0H .text$mn                CODE
 0001:000226f0 00000020H .text$mn$00             CODE
 0001:00022710 000002a0H .text$x                 CODE
 0001:000229b0 00000073H .text$yd                CODE
 0002:00000000 00000340H .idata$5                DATA
 0002:00000340 00000010H .00cfg                  DATA
 0002:00000350 00000008H .CRT$XCA                DATA
 0002:00000358 00000048H .CRT$XCU                DATA
 0002:000003a0 00000008H .CRT$XCZ                DATA
 0002:000003a8 00000008H .CRT$XIA                DATA
 0002:000003b0 00000020H .CRT$XIC                DATA
 0002:000003d0 00000008H .CRT$XIZ                DATA
 0002:000003d8 00000008H .CRT$XPA                DATA
 0002:000003e0 00000010H .CRT$XPX                DATA
 0002:000003f0 00000008H .CRT$XPXA               DATA
 0002:000003f8 00000008H .CRT$XPZ                DATA
 0002:00000400 00000008H .CRT$XTA                DATA
 0002:00000408 00000008H .CRT$XTZ                DATA
 0002:00000410 00009298H .rdata                  DATA
 0002:000096a8 000001f4H .rdata$r                DATA
 0002:0000989c 0000040cH .rdata$zzzdbg           DATA
 0002:00009ca8 00000008H .rtc$IAA                DATA
 0002:00009cb0 00000008H .rtc$IZZ                DATA
 0002:00009cb8 00000008H .rtc$TAA                DATA
 0002:00009cc0 00000008H .rtc$TZZ                DATA
 0002:00009cc8 00002008H .xdata                  DATA
 0002:0000bcd0 000000ecH .xdata$x                DATA
 0002:0000bdbc 00000020H .didat$2                DATA
 0002:0000bddc 00000024H .didat$3                DATA
 0002:0000be00 000002c0H .didat$4                DATA
 0002:0000c0c0 00001458H .didat$6                DATA
 0002:0000d518 000002c8H .didat$7                DATA
 0002:0000d7e0 00000060H .edata                  DATA
 0002:0000d840 00000028H .idata$2                DATA
 0002:0000d868 00000018H .idata$3                DATA
 0002:0000d880 00000340H .idata$4                DATA
 0002:0000dbc0 000005e0H .idata$6                DATA
 0003:00000000 00000a30H .data                   DATA
 0003:00000a30 000000a0H .data$r                 DATA
 0003:00000ad0 000002c0H .didat$5                DATA
 0003:00000d90 00001330H .bss                    DATA
 0004:00000000 00001f5cH .pdata                  DATA
 0005:00000000 00000088H .gfids$x                DATA
 0005:00000088 00000030H .gfids$y                DATA
 0006:00000000 00000060H .rsrc$01                DATA
 0006:00000060 00000180H .rsrc$02                DATA

  Address         Publics by Value              Rva+Base               Lib:Object

 0000:00000000       __dynamic_value_reloc_table 0000000000000000     <absolute>
 0000:00000000       __guard_iat_count          0000000000000000     <absolute>
 0000:00000000       __guard_iat_table          0000000000000000     <absolute>
 0000:00000000       __guard_longjmp_table      0000000000000000     <absolute>
 0000:00000000       __guard_longjmp_count      0000000000000000     <absolute>
 0000:00000000       __guard_fids_count         0000000000000000     <absolute>
 0000:00000000       ___safe_se_handler_table   0000000000000000     <absolute>
 0000:00000000       ___safe_se_handler_count   0000000000000000     <absolute>
 0000:00000000       __guard_fids_table         0000000000000000     <absolute>
 0000:00000100       __guard_flags              0000000000000100     <absolute>
 0000:00000000       __ImageBase                0000000180000000     <linker-defined>
 0001:000001d0       ?New@?$Factory@VFunctionTemplate@v8@@@imp@Nan@@SA?AV?$Local@VFunctionTemplate@v8@@@v8@@P6AXAEBV?$FunctionCallbackInfo@VValue@v8@@@3@@ZV?$Local@VValue@v8@@@5@V?$Local@VSignature@v8@@@5@@Z 00000001800011d0 f i odbc.obj
 0001:000003b0       ?Call@Callback@Nan@@QEBA?AV?$Local@VValue@v8@@@v8@@HQEAV34@@Z 00000001800013b0 f i odbc.obj
 0001:000004b0       ?SetPrototypeMethod@Nan@@YAXV?$Local@VFunctionTemplate@v8@@@v8@@PEBDP6AXAEBV?$FunctionCallbackInfo@VValue@v8@@@1@@Z@Z 00000001800014b0 f i odbc.obj
 0001:000005a0       ?Wrap@ObjectWrap@Nan@@IEAAXV?$Local@VObject@v8@@@v8@@@Z 00000001800015a0 f i odbc.obj
 0001:00000680       ?Ref@ObjectWrap@Nan@@MEAAXXZ 0000000180001680 f i odbc.obj
 0001:000006c0       ?Unref@ObjectWrap@Nan@@MEAAXXZ 00000001800016c0 f i odbc.obj
 0001:00000770       ?WeakCallback@ObjectWrap@Nan@@CAXAEBV?$WeakCallbackInfo@VObjectWrap@Nan@@@v8@@@Z 0000000180001770 f i odbc.obj
 0001:00000800       ??_EObjectWrap@Nan@@UEAAPEAXI@Z 0000000180001800 f i * CIL library *:* CIL module *
 0001:00000800       ??_GObjectWrap@Nan@@UEAAPEAXI@Z 0000000180001800 f i odbc.obj
 0001:00000890       ??_GODBC@@MEAAPEAXI@Z      0000000180001890 f i odbc.obj
 0001:00000890       ??_EODBC@@MEAAPEAXI@Z      0000000180001890 f i * CIL library *:* CIL module *
 0001:000008d0       ?Init@ODBC@@SAXV?$Local@VObject@v8@@@v8@@@Z 00000001800018d0 f   odbc.obj
 0001:00000e50       ??1ODBC@@MEAA@XZ           0000000180001e50 f   odbc.obj
 0001:00000f10       ?New@ODBC@@SAXAEBV?$FunctionCallbackInfo@VValue@v8@@@Nan@@@Z 0000000180001f10 f   odbc.obj
 0001:00001060       ?CreateConnection@ODBC@@SAXAEBV?$FunctionCallbackInfo@VValue@v8@@@Nan@@@Z 0000000180002060 f   odbc.obj
 0001:000011c0       ?UV_CreateConnection@ODBC@@KAXPEAUuv_work_s@@@Z 00000001800021c0 f   odbc.obj
 0001:00001210       ?UV_AfterCreateConnection@ODBC@@KAXPEAUuv_work_s@@H@Z 0000000180002210 f   odbc.obj
 0001:00001540       ?CreateConnectionSync@ODBC@@SAXAEBV?$FunctionCallbackInfo@VValue@v8@@@Nan@@@Z 0000000180002540 f   odbc.obj
 0001:00001670       ?GetColumns@ODBC@@SAPEAUColumn@@PEAXPEAF@Z 0000000180002670 f   odbc.obj
 0001:000017a0       ?FreeColumns@ODBC@@SAXPEAUColumn@@PEAF@Z 00000001800027a0 f   odbc.obj
 0001:00001810       ?GetColumnValue@ODBC@@SA?AV?$Local@VValue@v8@@@v8@@PEAXUColumn@@PEAGH@Z 0000000180002810 f   odbc.obj
 0001:00001d50       ?GetRecordTuple@ODBC@@SA?AV?$Local@VValue@v8@@@v8@@PEAXPEAUColumn@@PEAFPEAGH@Z 0000000180002d50 f   odbc.obj
 0001:00001ed0       ?GetRecordArray@ODBC@@SA?AV?$Local@VValue@v8@@@v8@@PEAXPEAUColumn@@PEAFPEAGH@Z 0000000180002ed0 f   odbc.obj
 0001:00002090       ?GetParametersFromArray@ODBC@@SAPEAUParameter@@V?$Local@VArray@v8@@@v8@@PEAH@Z 0000000180003090 f   odbc.obj
 0001:00002320       ?CallbackSQLError@ODBC@@SA?AV?$Local@VValue@v8@@@v8@@FPEAXPEADPEAVCallback@Nan@@@Z 0000000180003320 f   odbc.obj
 0001:00002490       ?GetSQLError@ODBC@@SA?AV?$Local@VObject@v8@@@v8@@FPEAXPEAD@Z 0000000180003490 f   odbc.obj
 0001:00002b40       init                       0000000180003b40 f   odbc.obj
 0001:00002b90       ??$Unwrap@VODBCStatement@@@ObjectWrap@Nan@@SAPEAVODBCStatement@@V?$Local@VObject@v8@@@v8@@@Z 0000000180003b90 f i odbc_statement.obj
 0001:00002b90       ??$Unwrap@VODBCConnection@@@ObjectWrap@Nan@@SAPEAVODBCConnection@@V?$Local@VObject@v8@@@v8@@@Z 0000000180003b90 f i odbc_connection.obj
 0001:00002b90       ??$Unwrap@VODBC@@@ObjectWrap@Nan@@SAPEAVODBC@@V?$Local@VObject@v8@@@v8@@@Z 0000000180003b90 f i odbc.obj
 0001:00002b90       ??$Unwrap@VODBCResult@@@ObjectWrap@Nan@@SAPEAVODBCResult@@V?$Local@VObject@v8@@@v8@@@Z 0000000180003b90 f i odbc_result.obj
 0001:00002db0       ?ThrowError@Nan@@YAXPEBD@Z 0000000180003db0 f i odbc_connection.obj
 0001:00002e40       ?ThrowTypeError@Nan@@YAXPEBD@Z 0000000180003e40 f i odbc_connection.obj
 0001:00002ed0       ?SetAccessor@Nan@@YAXV?$Local@VObjectTemplate@v8@@@v8@@V?$Local@VString@v8@@@3@P6AX1AEBV?$PropertyCallbackInfo@VValue@v8@@@1@@ZP6AX1V?$Local@VValue@v8@@@3@AEBV?$PropertyCallbackInfo@X@1@@Z4W4AccessControl@3@W4PropertyAttribute@3@V?$Local@VAccessorSignature@v8@@@3@@Z 0000000180003ed0 f i odbc_connection.obj
 0001:00003080       ??_EODBCConnection@@MEAAPEAXI@Z 0000000180004080 f i * CIL library *:* CIL module *
 0001:00003080       ??_GODBCConnection@@MEAAPEAXI@Z 0000000180004080 f i odbc_connection.obj
 0001:000030c0       ?Init@ODBCConnection@@SAXV?$Local@VObject@v8@@@v8@@@Z 00000001800040c0 f   odbc_connection.obj
 0001:000035d0       ??1ODBCConnection@@MEAA@XZ 00000001800045d0 f   odbc_connection.obj
 0001:00003690       ?New@ODBCConnection@@SAXAEBV?$FunctionCallbackInfo@VValue@v8@@@Nan@@@Z 0000000180004690 f   odbc_connection.obj
 0001:00003870       ?ConnectedGetter@ODBCConnection@@SAXV?$Local@VString@v8@@@v8@@AEBV?$PropertyCallbackInfo@VValue@v8@@@Nan@@@Z 0000000180004870 f   odbc_connection.obj
 0001:00003900       ?ConnectTimeoutGetter@ODBCConnection@@SAXV?$Local@VString@v8@@@v8@@AEBV?$PropertyCallbackInfo@VValue@v8@@@Nan@@@Z 0000000180004900 f   odbc_connection.obj
 0001:00003990       ?ConnectTimeoutSetter@ODBCConnection@@SAXV?$Local@VString@v8@@@v8@@V?$Local@VValue@v8@@@3@AEBV?$PropertyCallbackInfo@X@Nan@@@Z 0000000180004990 f   odbc_connection.obj
 0001:00003a00       ?LoginTimeoutGetter@ODBCConnection@@SAXV?$Local@VString@v8@@@v8@@AEBV?$PropertyCallbackInfo@VValue@v8@@@Nan@@@Z 0000000180004a00 f   odbc_connection.obj
 0001:00003a90       ?LoginTimeoutSetter@ODBCConnection@@SAXV?$Local@VString@v8@@@v8@@V?$Local@VValue@v8@@@3@AEBV?$PropertyCallbackInfo@X@Nan@@@Z 0000000180004a90 f   odbc_connection.obj
 0001:00003b00       ?Open@ODBCConnection@@SAXAEBV?$FunctionCallbackInfo@VValue@v8@@@Nan@@@Z 0000000180004b00 f   odbc_connection.obj
 0001:00003db0       ?UV_Open@ODBCConnection@@KAXPEAUuv_work_s@@@Z 0000000180004db0 f   odbc_connection.obj
 0001:00003eb0       ?UV_AfterOpen@ODBCConnection@@KAXPEAUuv_work_s@@H@Z 0000000180004eb0 f   odbc_connection.obj
 0001:000040c0       ?OpenSync@ODBCConnection@@SAXAEBV?$FunctionCallbackInfo@VValue@v8@@@Nan@@@Z 00000001800050c0 f   odbc_connection.obj
 0001:00004400       ?Close@ODBCConnection@@SAXAEBV?$FunctionCallbackInfo@VValue@v8@@@Nan@@@Z 0000000180005400 f   odbc_connection.obj
 0001:00004640       ?UV_Close@ODBCConnection@@KAXPEAUuv_work_s@@@Z 0000000180005640 f   odbc_connection.obj
 0001:000046b0       ?UV_AfterClose@ODBCConnection@@KAXPEAUuv_work_s@@H@Z 00000001800056b0 f   odbc_connection.obj
 0001:000048e0       ?CloseSync@ODBCConnection@@SAXAEBV?$FunctionCallbackInfo@VValue@v8@@@Nan@@@Z 00000001800058e0 f   odbc_connection.obj
 0001:000049a0       ?CreateStatementSync@ODBCConnection@@SAXAEBV?$FunctionCallbackInfo@VValue@v8@@@Nan@@@Z 00000001800059a0 f   odbc_connection.obj
 0001:00004b30       ?CreateStatement@ODBCConnection@@SAXAEBV?$FunctionCallbackInfo@VValue@v8@@@Nan@@@Z 0000000180005b30 f   odbc_connection.obj
 0001:00004d70       ?UV_CreateStatement@ODBCConnection@@KAXPEAUuv_work_s@@@Z 0000000180005d70 f   odbc_connection.obj
 0001:00004db0       ?UV_AfterCreateStatement@ODBCConnection@@KAXPEAUuv_work_s@@H@Z 0000000180005db0 f   odbc_connection.obj
 0001:00005040       ?Query@ODBCConnection@@SAXAEBV?$FunctionCallbackInfo@VValue@v8@@@Nan@@@Z 0000000180006040 f   odbc_connection.obj
 0001:000055c0       ?UV_Query@ODBCConnection@@KAXPEAUuv_work_s@@@Z 00000001800065c0 f   odbc_connection.obj
 0001:000056f0       ?UV_AfterQuery@ODBCConnection@@KAXPEAUuv_work_s@@H@Z 00000001800066f0 f   odbc_connection.obj
 0001:00005b20       ?QuerySync@ODBCConnection@@SAXAEBV?$FunctionCallbackInfo@VValue@v8@@@Nan@@@Z 0000000180006b20 f   odbc_connection.obj
 0001:000062e0       ?GetInfoSync@ODBCConnection@@SAXAEBV?$FunctionCallbackInfo@VValue@v8@@@Nan@@@Z 00000001800072e0 f   odbc_connection.obj
 0001:000064e0       ?Tables@ODBCConnection@@SAXAEBV?$FunctionCallbackInfo@VValue@v8@@@Nan@@@Z 00000001800074e0 f   odbc_connection.obj
 0001:00006ba0       ?UV_Tables@ODBCConnection@@KAXPEAUuv_work_s@@@Z 0000000180007ba0 f   odbc_connection.obj
 0001:00006c30       ?Columns@ODBCConnection@@SAXAEBV?$FunctionCallbackInfo@VValue@v8@@@Nan@@@Z 0000000180007c30 f   odbc_connection.obj
 0001:000072f0       ?UV_Columns@ODBCConnection@@KAXPEAUuv_work_s@@@Z 00000001800082f0 f   odbc_connection.obj
 0001:00007380       ?BeginTransactionSync@ODBCConnection@@SAXAEBV?$FunctionCallbackInfo@VValue@v8@@@Nan@@@Z 0000000180008380 f   odbc_connection.obj
 0001:000074a0       ?BeginTransaction@ODBCConnection@@SAXAEBV?$FunctionCallbackInfo@VValue@v8@@@Nan@@@Z 00000001800084a0 f   odbc_connection.obj
 0001:00007660       ?UV_BeginTransaction@ODBCConnection@@KAXPEAUuv_work_s@@@Z 0000000180008660 f   odbc_connection.obj
 0001:00007690       ?UV_AfterEndTransaction@ODBCConnection@@KAXPEAUuv_work_s@@H@Z 0000000180008690 f   odbc_connection.obj
 0001:00007690       ?UV_AfterBeginTransaction@ODBCConnection@@KAXPEAUuv_work_s@@H@Z 0000000180008690 f   odbc_connection.obj
 0001:000078b0       ?EndTransactionSync@ODBCConnection@@SAXAEBV?$FunctionCallbackInfo@VValue@v8@@@Nan@@@Z 00000001800088b0 f   odbc_connection.obj
 0001:00007b60       ?EndTransaction@ODBCConnection@@SAXAEBV?$FunctionCallbackInfo@VValue@v8@@@Nan@@@Z 0000000180008b60 f   odbc_connection.obj
 0001:00007dd0       ?UV_EndTransaction@ODBCConnection@@KAXPEAUuv_work_s@@@Z 0000000180008dd0 f   odbc_connection.obj
 0001:00007e40       ??_GODBCStatement@@MEAAPEAXI@Z 0000000180008e40 f i odbc_statement.obj
 0001:00007e40       ??_EODBCStatement@@MEAAPEAXI@Z 0000000180008e40 f i * CIL library *:* CIL module *
 0001:00007e80       ?Init@ODBCStatement@@SAXV?$Local@VObject@v8@@@v8@@@Z 0000000180008e80 f   odbc_statement.obj
 0001:00008170       ??1ODBCStatement@@MEAA@XZ  0000000180009170 f   odbc_statement.obj
 0001:000081f0       ?Free@ODBCStatement@@QEAAXXZ 00000001800091f0 f   odbc_statement.obj
 0001:00008300       ?New@ODBCStatement@@SAXAEBV?$FunctionCallbackInfo@VValue@v8@@@Nan@@@Z 0000000180009300 f   odbc_statement.obj
 0001:00008560       ?Execute@ODBCStatement@@SAXAEBV?$FunctionCallbackInfo@VValue@v8@@@Nan@@@Z 0000000180009560 f   odbc_statement.obj
 0001:000087a0       ?UV_ExecuteNonQuery@ODBCStatement@@KAXPEAUuv_work_s@@@Z 00000001800097a0 f   odbc_statement.obj
 0001:000087a0       ?UV_Execute@ODBCStatement@@KAXPEAUuv_work_s@@@Z 00000001800097a0 f   odbc_statement.obj
 0001:000087d0       ?UV_AfterExecute@ODBCStatement@@KAXPEAUuv_work_s@@H@Z 00000001800097d0 f   odbc_statement.obj
 0001:00008af0       ?ExecuteSync@ODBCStatement@@SAXAEBV?$FunctionCallbackInfo@VValue@v8@@@Nan@@@Z 0000000180009af0 f   odbc_statement.obj
 0001:00008d00       ?ExecuteNonQuery@ODBCStatement@@SAXAEBV?$FunctionCallbackInfo@VValue@v8@@@Nan@@@Z 0000000180009d00 f   odbc_statement.obj
 0001:00008f40       ?UV_AfterExecuteNonQuery@ODBCStatement@@KAXPEAUuv_work_s@@H@Z 0000000180009f40 f   odbc_statement.obj
 0001:000091e0       ?ExecuteNonQuerySync@ODBCStatement@@SAXAEBV?$FunctionCallbackInfo@VValue@v8@@@Nan@@@Z 000000018000a1e0 f   odbc_statement.obj
 0001:00009340       ?ExecuteDirect@ODBCStatement@@SAXAEBV?$FunctionCallbackInfo@VValue@v8@@@Nan@@@Z 000000018000a340 f   odbc_statement.obj
 0001:000095f0       ?UV_ExecuteDirect@ODBCStatement@@KAXPEAUuv_work_s@@@Z 000000018000a5f0 f   odbc_statement.obj
 0001:00009620       ?UV_AfterExecuteDirect@ODBCStatement@@KAXPEAUuv_work_s@@H@Z 000000018000a620 f   odbc_statement.obj
 0001:00009950       ?ExecuteDirectSync@ODBCStatement@@SAXAEBV?$FunctionCallbackInfo@VValue@v8@@@Nan@@@Z 000000018000a950 f   odbc_statement.obj
 0001:00009c60       ?PrepareSync@ODBCStatement@@SAXAEBV?$FunctionCallbackInfo@VValue@v8@@@Nan@@@Z 000000018000ac60 f   odbc_statement.obj
 0001:00009ea0       ?Prepare@ODBCStatement@@SAXAEBV?$FunctionCallbackInfo@VValue@v8@@@Nan@@@Z 000000018000aea0 f   odbc_statement.obj
 0001:0000a150       ?UV_Prepare@ODBCStatement@@KAXPEAUuv_work_s@@@Z 000000018000b150 f   odbc_statement.obj
 0001:0000a180       ?UV_AfterPrepare@ODBCStatement@@KAXPEAUuv_work_s@@H@Z 000000018000b180 f   odbc_statement.obj
 0001:0000a3b0       ?BindSync@ODBCStatement@@SAXAEBV?$FunctionCallbackInfo@VValue@v8@@@Nan@@@Z 000000018000b3b0 f   odbc_statement.obj
 0001:0000a6e0       ?Bind@ODBCStatement@@SAXAEBV?$FunctionCallbackInfo@VValue@v8@@@Nan@@@Z 000000018000b6e0 f   odbc_statement.obj
 0001:0000aa50       ?UV_Bind@ODBCStatement@@KAXPEAUuv_work_s@@@Z 000000018000ba50 f   odbc_statement.obj
 0001:0000ab20       ?UV_AfterBind@ODBCStatement@@KAXPEAUuv_work_s@@H@Z 000000018000bb20 f   odbc_statement.obj
 0001:0000ad50       ?CloseSync@ODBCStatement@@SAXAEBV?$FunctionCallbackInfo@VValue@v8@@@Nan@@@Z 000000018000bd50 f   odbc_statement.obj
 0001:0000ae60       ??_EODBCResult@@MEAAPEAXI@Z 000000018000be60 f i * CIL library *:* CIL module *
 0001:0000ae60       ??_GODBCResult@@MEAAPEAXI@Z 000000018000be60 f i odbc_result.obj
 0001:0000aea0       ?Init@ODBCResult@@SAXV?$Local@VObject@v8@@@v8@@@Z 000000018000bea0 f   odbc_result.obj
 0001:0000b220       ??1ODBCResult@@MEAA@XZ     000000018000c220 f   odbc_result.obj
 0001:0000b2f0       ?Free@ODBCResult@@QEAAXXZ  000000018000c2f0 f   odbc_result.obj
 0001:0000b360       ?New@ODBCResult@@SAXAEBV?$FunctionCallbackInfo@VValue@v8@@@Nan@@@Z 000000018000c360 f   odbc_result.obj
 0001:0000b630       ?FetchModeGetter@ODBCResult@@SAXV?$Local@VString@v8@@@v8@@AEBV?$PropertyCallbackInfo@VValue@v8@@@Nan@@@Z 000000018000c630 f   odbc_result.obj
 0001:0000b710       ?FetchModeSetter@ODBCResult@@SAXV?$Local@VString@v8@@@v8@@V?$Local@VValue@v8@@@3@AEBV?$PropertyCallbackInfo@X@Nan@@@Z 000000018000c710 f   odbc_result.obj
 0001:0000b780       ?Fetch@ODBCResult@@SAXAEBV?$FunctionCallbackInfo@VValue@v8@@@Nan@@@Z 000000018000c780 f   odbc_result.obj
 0001:0000bae0       ?UV_FetchAll@ODBCResult@@KAXPEAUuv_work_s@@@Z 000000018000cae0 f   odbc_result.obj
 0001:0000bae0       ?UV_Fetch@ODBCResult@@KAXPEAUuv_work_s@@@Z 000000018000cae0 f   odbc_result.obj
 0001:0000bb10       ?UV_AfterFetch@ODBCResult@@KAXPEAUuv_work_s@@H@Z 000000018000cb10 f   odbc_result.obj
 0001:0000bef0       ?FetchSync@ODBCResult@@SAXAEBV?$FunctionCallbackInfo@VValue@v8@@@Nan@@@Z 000000018000cef0 f   odbc_result.obj
 0001:0000c180       ?FetchAll@ODBCResult@@SAXAEBV?$FunctionCallbackInfo@VValue@v8@@@Nan@@@Z 000000018000d180 f   odbc_result.obj
 0001:0000c580       ?UV_AfterFetchAll@ODBCResult@@KAXPEAUuv_work_s@@H@Z 000000018000d580 f   odbc_result.obj
 0001:0000ca30       ?FetchAllSync@ODBCResult@@SAXAEBV?$FunctionCallbackInfo@VValue@v8@@@Nan@@@Z 000000018000da30 f   odbc_result.obj
 0001:0000ce20       ?CloseSync@ODBCResult@@SAXAEBV?$FunctionCallbackInfo@VValue@v8@@@Nan@@@Z 000000018000de20 f   odbc_result.obj
 0001:0000cf40       ?MoreResultsSync@ODBCResult@@SAXAEBV?$FunctionCallbackInfo@VValue@v8@@@Nan@@@Z 000000018000df40 f   odbc_result.obj
 0001:0000d020       ?GetColumnNamesSync@ODBCResult@@SAXAEBV?$FunctionCallbackInfo@VValue@v8@@@Nan@@@Z 000000018000e020 f   odbc_result.obj
 0001:0000d250       ?GetRowCountSync@ODBCResult@@SAXAEBV?$FunctionCallbackInfo@VValue@v8@@@Nan@@@Z 000000018000e250 f   odbc_result.obj
 0001:0000d310       strptime                   000000018000e310 f   strptime.obj
 0001:0000dcdc       __imp_load_uv_mutex_unlock 000000018000ecdc f   node:node.exe
 0001:0000dce8       __tailMerge_node_exe       000000018000ece8 f i node:node.exe
 0001:0000dd61       __imp_load_uv_queue_work   000000018000ed61 f   node:node.exe
 0001:0000dd6d       __imp_load_?Global@Context@v8@@QEAA?AV?$Local@VObject@v8@@@2@XZ 000000018000ed6d f   node:node.exe
 0001:0000dd79       __imp_load_?Value@External@v8@@QEBAPEAXXZ 000000018000ed79 f   node:node.exe
 0001:0000dd85       __imp_load_?New@External@v8@@SA?AV?$Local@VExternal@v8@@@2@PEAVIsolate@2@PEAX@Z 000000018000ed85 f   node:node.exe
 0001:0000dd91       __imp_load_?New@Integer@v8@@SA?AV?$Local@VInteger@v8@@@2@PEAVIsolate@2@H@Z 000000018000ed91 f   node:node.exe
 0001:0000dd9d       __imp_load_?New@Signature@v8@@SA?AV?$Local@VSignature@v8@@@2@PEAVIsolate@2@V?$Local@VFunctionTemplate@v8@@@2@@Z 000000018000ed9d f   node:node.exe
 0001:0000dda9       __imp_load_?ThrowException@Isolate@v8@@QEAA?AV?$Local@VValue@v8@@@2@V32@@Z 000000018000eda9 f   node:node.exe
 0001:0000ddb5       __imp_load_?GetCurrentContext@Isolate@v8@@QEAA?AV?$Local@VContext@v8@@@2@XZ 000000018000edb5 f   node:node.exe
 0001:0000ddc1       __imp_load_?GetCurrent@Isolate@v8@@SAPEAV12@XZ 000000018000edc1 f   node:node.exe
 0001:0000ddcd       __imp_load_?CreateHandle@HandleScope@v8@@KAPEAPEAVObject@internal@2@PEAVIsolate@42@PEAV342@@Z 000000018000edcd f   node:node.exe
 0001:0000ddd9       __imp_load_?CreateHandle@HandleScope@v8@@CAPEAPEAVObject@internal@2@PEAVHeapObject@42@PEAV342@@Z 000000018000edd9 f   node:node.exe
 0001:0000dde5       __imp_load_??1HandleScope@v8@@QEAA@XZ 000000018000ede5 f   node:node.exe
 0001:0000ddf1       __imp_load_??0HandleScope@v8@@QEAA@PEAVIsolate@1@@Z 000000018000edf1 f   node:node.exe
 0001:0000ddfd       __imp_load_?Set@Template@v8@@QEAAXV?$Local@VName@v8@@@2@V?$Local@VData@v8@@@2@W4PropertyAttribute@2@@Z 000000018000edfd f   node:node.exe
 0001:0000de09       __imp_load_?Error@Exception@v8@@SA?AV?$Local@VValue@v8@@@2@V?$Local@VString@v8@@@2@@Z 000000018000ee09 f   node:node.exe
 0001:0000de15       __imp_load_?New@Array@v8@@SA?AV?$Local@VArray@v8@@@2@PEAVIsolate@2@H@Z 000000018000ee15 f   node:node.exe
 0001:0000de21       __imp_load_?Length@Array@v8@@QEBAIXZ 000000018000ee21 f   node:node.exe
 0001:0000de2d       __imp_load_?New@Date@v8@@SA?AV?$MaybeLocal@VValue@v8@@@2@V?$Local@VContext@v8@@@2@N@Z 000000018000ee2d f   node:node.exe
 0001:0000de39       __imp_load_?SetClassName@FunctionTemplate@v8@@QEAAXV?$Local@VString@v8@@@2@@Z 000000018000ee39 f   node:node.exe
 0001:0000de45       __imp_load_?PrototypeTemplate@FunctionTemplate@v8@@QEAA?AV?$Local@VObjectTemplate@v8@@@2@XZ 000000018000ee45 f   node:node.exe
 0001:0000de51       __imp_load_?InstanceTemplate@FunctionTemplate@v8@@QEAA?AV?$Local@VObjectTemplate@v8@@@2@XZ 000000018000ee51 f   node:node.exe
 0001:0000de5d       __imp_load_?GetFunction@FunctionTemplate@v8@@QEAA?AV?$Local@VFunction@v8@@@2@XZ 000000018000ee5d f   node:node.exe
 0001:0000de69       __imp_load_?New@FunctionTemplate@v8@@SA?AV?$Local@VFunctionTemplate@v8@@@2@PEAVIsolate@2@P6AXAEBV?$FunctionCallbackInfo@VValue@v8@@@2@@ZV?$Local@VValue@v8@@@2@V?$Local@VSignature@v8@@@2@HW4ConstructorBehavior@2@@Z 000000018000ee69 f   node:node.exe
 0001:0000de75       __imp_load_?ToLocalEmpty@V8@v8@@CAXXZ 000000018000ee75 f   node:node.exe
 0001:0000de81       __imp_load_?ClearWeak@V8@v8@@CAPEAXPEAPEAVObject@internal@2@@Z 000000018000ee81 f   node:node.exe
 0001:0000de8d       __imp_load_?MakeWeak@V8@v8@@CAXPEAPEAVObject@internal@2@PEAXP6AXAEBV?$WeakCallbackInfo@X@2@@ZW4WeakCallbackType@2@@Z 000000018000ee8d f   node:node.exe
 0001:0000de99       __imp_load_?DisposeGlobal@V8@v8@@CAXPEAPEAVObject@internal@2@@Z 000000018000ee99 f   node:node.exe
 0001:0000dea5       __imp_load_?GlobalizeReference@V8@v8@@CAPEAPEAVObject@internal@2@PEAVIsolate@42@PEAPEAV342@@Z 000000018000eea5 f   node:node.exe
 0001:0000deb1       __imp_load_?IntegerValue@Value@v8@@QEBA_JXZ 000000018000eeb1 f   node:node.exe
 0001:0000debd       __imp_load_?NumberValue@Value@v8@@QEBANXZ 000000018000eebd f   node:node.exe
 0001:0000dec9       __imp_load_?BooleanValue@Value@v8@@QEBA_NXZ 000000018000eec9 f   node:node.exe
 0001:0000ded5       __imp_load_?ToInt32@Value@v8@@QEBA?AV?$MaybeLocal@VInt32@v8@@@2@V?$Local@VContext@v8@@@2@@Z 000000018000eed5 f   node:node.exe
 0001:0000dee1       __imp_load_?ToInteger@Value@v8@@QEBA?AV?$MaybeLocal@VInteger@v8@@@2@V?$Local@VContext@v8@@@2@@Z 000000018000eee1 f   node:node.exe
 0001:0000deed       __imp_load_?IsInt32@Value@v8@@QEBA_NXZ 000000018000eeed f   node:node.exe
 0001:0000def9       __imp_load_?IsNumber@Value@v8@@QEBA_NXZ 000000018000eef9 f   node:node.exe
 0001:0000df05       __imp_load_?IsBoolean@Value@v8@@QEBA_NXZ 000000018000ef05 f   node:node.exe
 0001:0000df11       __imp_load_?HasCaught@TryCatch@v8@@QEBA_NXZ 000000018000ef11 f   node:node.exe
 0001:0000df1d       __imp_load_??1TryCatch@v8@@QEAA@XZ 000000018000ef1d f   node:node.exe
 0001:0000df29       __imp_load_??0TryCatch@v8@@QEAA@PEAVIsolate@1@@Z 000000018000ef29 f   node:node.exe
 0001:0000df35       __imp_load_?Escape@EscapableHandleScope@v8@@AEAAPEAPEAVObject@internal@2@PEAPEAV342@@Z 000000018000ef35 f   node:node.exe
 0001:0000df41       __imp_load_??0EscapableHandleScope@v8@@QEAA@PEAVIsolate@1@@Z 000000018000ef41 f   node:node.exe
 0001:0000df4d       __imp_load_?Concat@String@v8@@SA?AV?$Local@VString@v8@@@2@V32@0@Z 000000018000ef4d f   node:node.exe
 0001:0000df59       __imp_load_?NewFromTwoByte@String@v8@@SA?AV?$MaybeLocal@VString@v8@@@2@PEAVIsolate@2@PEBGW4NewStringType@2@H@Z 000000018000ef59 f   node:node.exe
 0001:0000df65       __imp_load_?NewFromUtf8@String@v8@@SA?AV?$MaybeLocal@VString@v8@@@2@PEAVIsolate@2@PEBDW4NewStringType@2@H@Z 000000018000ef65 f   node:node.exe
 0001:0000df71       __imp_load_?Write@String@v8@@QEBAHPEAGHHH@Z 000000018000ef71 f   node:node.exe
 0001:0000df7d       __imp_load_?Length@String@v8@@QEBAHXZ 000000018000ef7d f   node:node.exe
 0001:0000df89       __imp_load_?New@Number@v8@@SA?AV?$Local@VNumber@v8@@@2@PEAVIsolate@2@N@Z 000000018000ef89 f   node:node.exe
 0001:0000df95       __imp_load_?SlowGetAlignedPointerFromInternalField@Object@v8@@AEAAPEAXH@Z 000000018000ef95 f   node:node.exe
 0001:0000dfa1       __imp_load_?SlowGetInternalField@Object@v8@@AEAA?AV?$Local@VValue@v8@@@2@H@Z 000000018000efa1 f   node:node.exe
 0001:0000dfad       __imp_load_?New@Object@v8@@SA?AV?$Local@VObject@v8@@@2@PEAVIsolate@2@@Z 000000018000efad f   node:node.exe
 0001:0000dfb9       __imp_load_?SetAlignedPointerInInternalField@Object@v8@@QEAAXHPEAX@Z 000000018000efb9 f   node:node.exe
 0001:0000dfc5       __imp_load_?SetInternalField@Object@v8@@QEAAXHV?$Local@VValue@v8@@@2@@Z 000000018000efc5 f   node:node.exe
 0001:0000dfd1       __imp_load_?InternalFieldCount@Object@v8@@QEAAHXZ 000000018000efd1 f   node:node.exe
 0001:0000dfdd       __imp_load_?SetPrototype@Object@v8@@QEAA_NV?$Local@VValue@v8@@@2@@Z 000000018000efdd f   node:node.exe
 0001:0000dfe9       __imp_load_?Get@Object@v8@@QEAA?AV?$Local@VValue@v8@@@2@I@Z 000000018000efe9 f   node:node.exe
 0001:0000dff5       __imp_load_?Set@Object@v8@@QEAA_NV?$Local@VValue@v8@@@2@0@Z 000000018000eff5 f   node:node.exe
 0001:0000e001       __imp_load_?NewInstance@Function@v8@@QEBA?AV?$Local@VObject@v8@@@2@HQEAV?$Local@VValue@v8@@@2@@Z 000000018000f001 f   node:node.exe
 0001:0000e00d       __imp_load_?SetInternalFieldCount@ObjectTemplate@v8@@QEAAXH@Z 000000018000f00d f   node:node.exe
 0001:0000e019       __imp_load_?NewInstance@ObjectTemplate@v8@@QEAA?AV?$MaybeLocal@VObject@v8@@@2@V?$Local@VContext@v8@@@2@@Z 000000018000f019 f   node:node.exe
 0001:0000e025       __imp_load_?New@ObjectTemplate@v8@@SA?AV?$Local@VObjectTemplate@v8@@@2@PEAVIsolate@2@V?$Local@VFunctionTemplate@v8@@@2@@Z 000000018000f025 f   node:node.exe
 0001:0000e031       __imp_load_uv_mutex_lock   000000018000f031 f   node:node.exe
 0001:0000e03d       __imp_load_?FatalException@node@@YAXPEAVIsolate@v8@@AEBVTryCatch@3@@Z 000000018000f03d f   node:node.exe
 0001:0000e049       __imp_load_node_module_register 000000018000f049 f   node:node.exe
 0001:0000e055       __imp_load_?MakeCallback@node@@YA?AV?$Local@VValue@v8@@@v8@@PEAVIsolate@3@V?$Local@VObject@v8@@@3@V?$Local@VFunction@v8@@@3@HPEAV23@@Z 000000018000f055 f   node:node.exe
 0001:0000e061       __imp_load_uv_mutex_init   000000018000f061 f   node:node.exe
 0001:0000e06d       __imp_load_uv_default_loop 000000018000f06d f   node:node.exe
 0001:0000e079       __imp_load_?ToString@Value@v8@@QEBA?AV?$Local@VString@v8@@@2@XZ 000000018000f079 f   node:node.exe
 0001:0000e085       __imp_load_?LowMemoryNotification@Isolate@v8@@QEAAXXZ 000000018000f085 f   node:node.exe
 0001:0000e091       __imp_load_?TypeError@Exception@v8@@SA?AV?$Local@VValue@v8@@@2@V?$Local@VString@v8@@@2@@Z 000000018000f091 f   node:node.exe
 0001:0000e09d       __imp_load_?Value@Boolean@v8@@QEBA_NXZ 000000018000f09d f   node:node.exe
 0001:0000e0a9       __imp_load_?Equals@Value@v8@@QEBA_NV?$Local@VValue@v8@@@2@@Z 000000018000f0a9 f   node:node.exe
 0001:0000e0b5       __imp_load_?Uint32Value@Value@v8@@QEBAIXZ 000000018000f0b5 f   node:node.exe
 0001:0000e0c1       __imp_load_?IsExternal@Value@v8@@QEBA_NXZ 000000018000f0c1 f   node:node.exe
 0001:0000e0cd       __imp_load_?IsObject@Value@v8@@QEBA_NXZ 000000018000f0cd f   node:node.exe
 0001:0000e0d9       __imp_load_?IsArray@Value@v8@@QEBA_NXZ 000000018000f0d9 f   node:node.exe
 0001:0000e0e5       __imp_load_?IsFunction@Value@v8@@QEBA_NXZ 000000018000f0e5 f   node:node.exe
 0001:0000e0f1       __imp_load_??1Value@String@v8@@QEAA@XZ 000000018000f0f1 f   node:node.exe
 0001:0000e0fd       __imp_load_??0Value@String@v8@@QEAA@V?$Local@VValue@v8@@@2@@Z 000000018000f0fd f   node:node.exe
 0001:0000e109       __imp_load_?Has@Object@v8@@QEAA_NV?$Local@VValue@v8@@@2@@Z 000000018000f109 f   node:node.exe
 0001:0000e115       __imp_load_?Get@Object@v8@@QEAA?AV?$Local@VValue@v8@@@2@V32@@Z 000000018000f115 f   node:node.exe
 0001:0000e121       __imp_load_?SetAccessor@ObjectTemplate@v8@@QEAAXV?$Local@VName@v8@@@2@P6AX0AEBV?$PropertyCallbackInfo@VValue@v8@@@2@@ZP6AX0V?$Local@VValue@v8@@@2@AEBV?$PropertyCallbackInfo@X@2@@Z3W4AccessControl@2@W4PropertyAttribute@2@V?$Local@VAccessorSignature@v8@@@2@@Z 000000018000f121 f   node:node.exe
 0001:0000e12d       __imp_load_?ToObject@Value@v8@@QEBA?AV?$Local@VObject@v8@@@2@XZ 000000018000f12d f   node:node.exe
 0001:0000e139       __imp_load_?ToBoolean@Value@v8@@QEBA?AV?$Local@VBoolean@v8@@@2@XZ 000000018000f139 f   node:node.exe
 0001:0000e145       __imp_load_?Int32Value@Value@v8@@QEBAHXZ 000000018000f145 f   node:node.exe
 0001:0000e151       __imp_load_?Value@Int32@v8@@QEBAHXZ 000000018000f151 f   node:node.exe
 0001:0000e15d       __imp_load_?ToInt32@Value@v8@@QEBA?AV?$Local@VInt32@v8@@@2@XZ 000000018000f15d f   node:node.exe
 0001:0000e180       __security_check_cookie    000000018000f180 f   LIBCMT:_amdsecgs_.obj
 0001:0000e1a4       ??_V@YAXPEAX@Z             000000018000f1a4 f   LIBCMT:delete_array.obj
 0001:0000e1a4       ??3@YAXPEAX_K@Z            000000018000f1a4 f   LIBCMT:delete_scalar_size.obj
 0001:0000e1ac       ??2@YAPEAX_K@Z             000000018000f1ac f   LIBCMT:new_scalar.obj
 0001:0000e1e8       __scrt_acquire_startup_lock 000000018000f1e8 f   LIBCMT:utility.obj
 0001:0000e224       __scrt_dllmain_after_initialize_c 000000018000f224 f   LIBCMT:utility.obj
 0001:0000e258       __scrt_dllmain_before_initialize_c 000000018000f258 f   LIBCMT:utility.obj
 0001:0000e270       __scrt_dllmain_crt_thread_attach 000000018000f270 f   LIBCMT:utility.obj
 0001:0000e298       __scrt_dllmain_crt_thread_detach 000000018000f298 f   LIBCMT:utility.obj
 0001:0000e2b0       __scrt_dllmain_exception_filter 000000018000f2b0 f   LIBCMT:utility.obj
 0001:0000e314       __scrt_dllmain_uninitialize_c 000000018000f314 f   LIBCMT:utility.obj
 0001:0000e344       __scrt_dllmain_uninitialize_critical 000000018000f344 f   LIBCMT:utility.obj
 0001:0000e358       __scrt_initialize_crt      000000018000f358 f   LIBCMT:utility.obj
 0001:0000e3a4       __scrt_initialize_onexit_tables 000000018000f3a4 f   LIBCMT:utility.obj
 0001:0000e470       __scrt_is_nonwritable_in_current_image 000000018000f470 f   LIBCMT:utility.obj
 0001:0000e50c       __scrt_release_startup_lock 000000018000f50c f   LIBCMT:utility.obj
 0001:0000e530       __scrt_uninitialize_crt    000000018000f530 f   LIBCMT:utility.obj
 0001:0000e55c       _onexit                    000000018000f55c f   LIBCMT:utility.obj
 0001:0000e5ac       atexit                     000000018000f5ac f   LIBCMT:utility.obj
 0001:0000e5c4       ??_U@YAPEAX_K@Z            000000018000f5c4 f   LIBCMT:new_array.obj
 0001:0000e918       _DllMainCRTStartup         000000018000f918 f   LIBCMT:dll_dllmain.obj
 0001:0000e958       __raise_securityfailure    000000018000f958 f   LIBCMT:gs_report.obj
 0001:0000e98c       __report_gsfailure         000000018000f98c f   LIBCMT:gs_report.obj
 0001:0000ea60       __report_rangecheckfailure 000000018000fa60 f   LIBCMT:gs_report.obj
 0001:0000ea74       __report_securityfailure   000000018000fa74 f   LIBCMT:gs_report.obj
 0001:0000ebf4       ??3@YAXPEAX@Z              000000018000fbf4 f   LIBCMT:delete_scalar.obj
 0001:0000ebfc       ??0bad_alloc@std@@QEAA@AEBV01@@Z 000000018000fbfc f i LIBCMT:throw_bad_alloc.obj
 0001:0000ec3c       ??0bad_alloc@std@@QEAA@XZ  000000018000fc3c f i LIBCMT:throw_bad_alloc.obj
 0001:0000ec5c       ??0bad_array_new_length@std@@QEAA@AEBV01@@Z 000000018000fc5c f i LIBCMT:throw_bad_alloc.obj
 0001:0000ec9c       ??0bad_array_new_length@std@@QEAA@XZ 000000018000fc9c f i LIBCMT:throw_bad_alloc.obj
 0001:0000ecbc       ??0exception@std@@QEAA@AEBV01@@Z 000000018000fcbc f i LIBCMT:throw_bad_alloc.obj
 0001:0000ecf4       ??1bad_alloc@std@@UEAA@XZ  000000018000fcf4 f i LIBCMT:throw_bad_alloc.obj
 0001:0000ecf4       ??1bad_array_new_length@std@@UEAA@XZ 000000018000fcf4 f i LIBCMT:throw_bad_alloc.obj
 0001:0000ed08       ??_Ebad_array_new_length@std@@UEAAPEAXI@Z 000000018000fd08 f i LIBCMT:throw_bad_alloc.obj
 0001:0000ed08       ??_Gbad_array_new_length@std@@UEAAPEAXI@Z 000000018000fd08 f i LIBCMT:throw_bad_alloc.obj
 0001:0000ed08       ??_Ebad_alloc@std@@UEAAPEAXI@Z 000000018000fd08 f i LIBCMT:throw_bad_alloc.obj
 0001:0000ed08       ??_Gbad_alloc@std@@UEAAPEAXI@Z 000000018000fd08 f i LIBCMT:throw_bad_alloc.obj
 0001:0000ed08       ??_Eexception@std@@UEAAPEAXI@Z 000000018000fd08 f i LIBCMT:throw_bad_alloc.obj
 0001:0000ed08       ??_Gexception@std@@UEAAPEAXI@Z 000000018000fd08 f i LIBCMT:throw_bad_alloc.obj
 0001:0000ed4c       ?__scrt_throw_std_bad_alloc@@YAXXZ 000000018000fd4c f   LIBCMT:throw_bad_alloc.obj
 0001:0000ed6c       ?__scrt_throw_std_bad_array_new_length@@YAXXZ 000000018000fd6c f   LIBCMT:throw_bad_alloc.obj
 0001:0000ed8c       ?what@exception@std@@UEBAPEBDXZ 000000018000fd8c f i LIBCMT:throw_bad_alloc.obj
 0001:0000eda0       __isa_available_init       000000018000fda0 f   LIBCMT:_cpu_disp_.obj
 0001:0000ef68       __scrt_is_ucrt_dll_in_use  000000018000ff68 f   LIBCMT:ucrt_detection.obj
 0001:0000ef74       __crt_debugger_hook        000000018000ff74 f   LIBCMT:utility_desktop.obj
 0001:0000ef7c       __scrt_fastfail            000000018000ff7c f   LIBCMT:utility_desktop.obj
 0001:0000f0c4       _guard_check_icall         00000001800100c4 f i LIBCMT:checkcfg.obj
 0001:0000f0cc       __security_init_cookie     00000001800100cc f   LIBCMT:gs_support.obj
 0001:0000f178       DllMain                    0000000180010178 f   LIBCMT:dll_dllmain_stub.obj
 0001:0000f178       _get_startup_argv_mode     0000000180010178 f   LIBCMT:argv_mode.obj
 0001:0000f180       ?__scrt_initialize_type_info@@YAXXZ 0000000180010180 f   LIBCMT:tncleanup.obj
 0001:0000f190       ?__scrt_uninitialize_type_info@@YAXXZ 0000000180010190 f   LIBCMT:tncleanup.obj
 0001:0000f19c       __local_stdio_printf_options 000000018001019c f i LIBCMT:default_local_stdio_options.obj
 0001:0000f1a4       __local_stdio_scanf_options 00000001800101a4 f i LIBCMT:default_local_stdio_options.obj
 0001:0000f1ac       __scrt_initialize_default_local_stdio_options 00000001800101ac f   LIBCMT:default_local_stdio_options.obj
 0001:0000f1c8       __scrt_get_dyn_tls_init_callback 00000001800101c8 f   LIBCMT:dyn_tls_init.obj
 0001:0000f1d0       _RTC_Initialize            00000001800101d0 f   LIBCMT:_initsect_.obj
 0001:0000f21c       _RTC_Terminate             000000018001021c f   LIBCMT:_initsect_.obj
 0001:0000f268       ??_Gtype_info@@UEAAPEAXI@Z 0000000180010268 f i LIBCMT:std_type_info_static.obj
 0001:0000f268       ??_Etype_info@@UEAAPEAXI@Z 0000000180010268 f i LIBCMT:std_type_info_static.obj
 0001:0000f294       _guard_check_icall_nop     0000000180010294 f i LIBCMT:guard_support.obj
 0001:0000f294       __except_validate_context_record 0000000180010294 f i libvcruntime:jbcxrval.obj
 0001:0000f2a0       __vcrt_initialize          00000001800102a0 f   libvcruntime:initialization.obj
 0001:0000f2d4       __vcrt_thread_attach       00000001800102d4 f   libvcruntime:initialization.obj
 0001:0000f2e8       __vcrt_thread_detach       00000001800102e8 f   libvcruntime:initialization.obj
 0001:0000f2fc       __vcrt_uninitialize        00000001800102fc f   libvcruntime:initialization.obj
 0001:0000f31c       __vcrt_uninitialize_critical 000000018001031c f   libvcruntime:initialization.obj
 0001:0000f32c       __C_specific_handler       000000018001032c f   libvcruntime:_chandler_.obj
 0001:0000f528       __std_exception_copy       0000000180010528 f   libvcruntime:std_exception.obj
 0001:0000f5b8       __std_exception_destroy    00000001800105b8 f   libvcruntime:std_exception.obj
 0001:0000f5e0       _CxxThrowException         00000001800105e0 f   libvcruntime:throw.obj
 0001:0000f6d0       memset                     00000001800106d0 f   libvcruntime:memset.obj
 0001:0000f870       __std_type_info_destroy_list 0000000180010870 f   libvcruntime:std_type_info.obj
 0001:0000f89c       __vcrt_freefls             000000018001089c f   libvcruntime:per_thread_data.obj
 0001:0000f8bc       __vcrt_freeptd             00000001800108bc f   libvcruntime:per_thread_data.obj
 0001:0000f90c       __vcrt_getptd_noexit       000000018001090c f   libvcruntime:per_thread_data.obj
 0001:0000f9c4       __vcrt_initialize_ptd      00000001800109c4 f   libvcruntime:per_thread_data.obj
 0001:0000fa04       __vcrt_uninitialize_ptd    0000000180010a04 f   libvcruntime:per_thread_data.obj
 0001:0000fa28       __vcrt_initialize_locks    0000000180010a28 f   libvcruntime:locks.obj
 0001:0000fa70       __vcrt_uninitialize_locks  0000000180010a70 f   libvcruntime:locks.obj
 0001:0000fc70       __vcrt_FlsAlloc            0000000180010c70 f   libvcruntime:winapi_downlevel.obj
 0001:0000fcc4       __vcrt_FlsFree             0000000180010cc4 f   libvcruntime:winapi_downlevel.obj
 0001:0000fd18       __vcrt_FlsGetValue         0000000180010d18 f   libvcruntime:winapi_downlevel.obj
 0001:0000fd6c       __vcrt_FlsSetValue         0000000180010d6c f   libvcruntime:winapi_downlevel.obj
 0001:0000fdd4       __vcrt_InitializeCriticalSectionEx 0000000180010dd4 f   libvcruntime:winapi_downlevel.obj
 0001:0000fe4c       __vcrt_initialize_winapi_thunks 0000000180010e4c f   libvcruntime:winapi_downlevel.obj
 0001:0000fe98       __vcrt_uninitialize_winapi_thunks 0000000180010e98 f   libvcruntime:winapi_downlevel.obj
 0001:0000fed8       __vcrt_initialize_pure_virtual_call_handler 0000000180010ed8 f   libvcruntime:purevirt_data.obj
 0001:0000ff10       _local_unwind              0000000180010f10 f   libvcruntime:_jmpuwind_.obj
 0001:0000ff40       _NLG_Notify                0000000180010f40 f   libvcruntime:_jmpuwind_.obj
 0001:0000ff60       __NLG_Dispatch2            0000000180010f60 f   libvcruntime:_jmpuwind_.obj
 0001:0000ff70       __NLG_Return2              0000000180010f70 f   libvcruntime:_jmpuwind_.obj
 0001:0000ff74       calloc                     0000000180010f74 f   libucrt:calloc.obj
 0001:0000ff7c       ??$__crt_time_is_leap_year@_J@@YA_N_J@Z 0000000180010f7c f i libucrt:mktime.obj
 0001:00010350       _mktime64                  0000000180011350 f   libucrt:mktime.obj
 0001:00010358       free                       0000000180011358 f   libucrt:free.obj
 0001:00010d48       ??$ftprintf@PEAU_iobuf@@PEB_WAEBQEB_WAEBQEB_WAEBI@?$__crt_char_traits@_W@@SAH$$QEAPEAU_iobuf@@$$QEAPEB_WAEBQEB_W2AEBI@Z 0000000180011d48 f i libucrt:assert.obj
 0001:00010d70       _wassert                   0000000180011d70 f   libucrt:assert.obj
 0001:00010df4       fwprintf                   0000000180011df4 f i libucrt:assert.obj
 0001:00010e38       swprintf                   0000000180011e38 f i libucrt:assert.obj
 0001:00010e8c       malloc                     0000000180011e8c f   libucrt:malloc.obj
 0001:00010e94       ??0_LocaleUpdate@@QEAA@QEAU__crt_locale_pointers@@@Z 0000000180011e94 f i libucrt:tolower_toupper.obj
 0001:00010f74       _tolower_l                 0000000180011f74 f   libucrt:tolower_toupper.obj
 0001:000110b4       tolower                    00000001800120b4 f   libucrt:tolower_toupper.obj
 0001:000110e0       isdigit                    00000001800120e0 f i libucrt:_ctype.obj
 0001:00011154       isspace                    0000000180012154 f i libucrt:_ctype.obj
 0001:000111c8       __ascii_stricmp            00000001800121c8 f   libucrt:stricmp.obj
 0001:00011204       _stricmp                   0000000180012204 f   libucrt:stricmp.obj
 0001:0001124c       _stricmp_l                 000000018001224c f   libucrt:stricmp.obj
 0001:00011300       __acrt_initialize_new_handler 0000000180012300 f   libucrt:new_handler.obj
 0001:00011308       _callnewh                  0000000180012308 f   libucrt:new_handler.obj
 0001:00011348       _query_new_handler         0000000180012348 f   libucrt:new_handler.obj
 0001:0001137c       _seh_filter_dll            000000018001237c f   libucrt:exception_filter.obj
 0001:00011390       _seh_filter_exe            0000000180012390 f   libucrt:exception_filter.obj
 0001:00011750       __acrt_initialize_thread_local_exit_callback 0000000180012750 f   libucrt:exit.obj
 0001:00011758       _cexit                     0000000180012758 f   libucrt:exit.obj
 0001:00011768       _exit                      0000000180012768 f   libucrt:exit.obj
 0001:00011774       _is_c_termination_complete 0000000180012774 f   libucrt:exit.obj
 0001:00011938       __acrt_allocate_buffer_for_argv 0000000180012938 f   libucrt:argv_parsing.obj
 0001:0001199c       _configure_narrow_argv     000000018001299c f   libucrt:argv_parsing.obj
 0001:00011e14       __dcrt_get_or_create_narrow_environment_nolock 0000000180012e14 f   libucrt:environment_initialization.obj
 0001:00011e1c       __dcrt_uninitialize_environments_nolock 0000000180012e1c f   libucrt:environment_initialization.obj
 0001:00011e54       _initialize_narrow_environment 0000000180012e54 f   libucrt:environment_initialization.obj
 0001:00011e5c       ??$?RV<lambda_b8c45f8f788dd370798f47cfe8ac3a86>@@AEAV<lambda_4e60a939b0d047cfe11ddc22648dfba9>@@V<lambda_332c3edc96d0294ec56c57d38c1cdfd5>@@@?$__crt_seh_guarded_call@H@@QEAAH$$QEAV<lambda_b8c45f8f788dd370798f47cfe8ac3a86>@@AEAV<lambda_4e60a939b0d047cfe11ddc22648dfba9>@@$$QEAV<lambda_332c3edc96d0294ec56c57d38c1cdfd5>@@@Z 0000000180012e5c f i libucrt:onexit.obj
 0001:00011e98       ??$?RV<lambda_e24bbb7b643b32fcea6fa61b31d4c984>@@AEAV<lambda_275893d493268fdec8709772e3fcec0e>@@V<lambda_9d71df4d7cf3f480f8d633942495c3b0>@@@?$__crt_seh_guarded_call@H@@QEAAH$$QEAV<lambda_e24bbb7b643b32fcea6fa61b31d4c984>@@AEAV<lambda_275893d493268fdec8709772e3fcec0e>@@$$QEAV<lambda_9d71df4d7cf3f480f8d633942495c3b0>@@@Z 0000000180012e98 f i libucrt:onexit.obj
 0001:00012214       _crt_atexit                0000000180013214 f   libucrt:onexit.obj
 0001:00012224       _execute_onexit_table      0000000180013224 f   libucrt:onexit.obj
 0001:00012260       _initialize_onexit_table   0000000180013260 f   libucrt:onexit.obj
 0001:000122a0       _register_onexit_function  00000001800132a0 f   libucrt:onexit.obj
 0001:00012330       __acrt_uninitialize_command_line 0000000180013330 f   libucrt:argv_data.obj
 0001:00012420       __acrt_initialize          0000000180013420 f   libucrt:initialization.obj
 0001:00012434       __acrt_thread_attach       0000000180013434 f   libucrt:initialization.obj
 0001:00012448       __acrt_thread_detach       0000000180013448 f   libucrt:initialization.obj
 0001:00012458       __acrt_uninitialize        0000000180013458 f   libucrt:initialization.obj
 0001:0001246c       __acrt_uninitialize_critical 000000018001346c f   libucrt:initialization.obj
 0001:0001247c       _initterm                  000000018001347c f   libucrt:initterm.obj
 0001:000124f4       _initterm_e                00000001800134f4 f   libucrt:initterm.obj
 0001:00012540       terminate                  0000000180013540 f   libucrt:terminate.obj
 0001:00012568       strcpy_s                   0000000180013568 f   libucrt:strcpy_s.obj
 0001:000125c8       _free_base                 00000001800135c8 f   libucrt:free_base.obj
 0001:00012608       _malloc_base               0000000180013608 f   libucrt:malloc_base.obj
 0001:00012668       abort                      0000000180013668 f   libucrt:abort.obj
 0001:000126c0       _calloc_base               00000001800136c0 f   libucrt:calloc_base.obj
 0001:00012738       ??$?RV<lambda_7b91131dde12e1c3dfc74ff76b3f2eac>@@AEAV<lambda_dd75445284c072d0bd3768540cc698fa>@@V<lambda_16bc4ecb55b4718497c16bceaea2ceaf>@@@?$__crt_seh_guarded_call@H@@QEAAH$$QEAV<lambda_7b91131dde12e1c3dfc74ff76b3f2eac>@@AEAV<lambda_dd75445284c072d0bd3768540cc698fa>@@$$QEAV<lambda_16bc4ecb55b4718497c16bceaea2ceaf>@@@Z 0000000180013738 f i libucrt:output.obj
 0001:00012778       ??$ensure_buffer_is_big_enough@D@formatting_buffer@__crt_stdio_output@@QEAA_N_K@Z 0000000180013778 f i libucrt:output.obj
 0001:00012824       ??$is_wide_character_specifier@_W@__crt_stdio_output@@YA_N_K_WW4length_modifier@0@@Z 0000000180013824 f i libucrt:output.obj
 0001:00012868       ??$type_case_integer_parse_into_buffer@I@?$output_processor@_WV?$stream_output_adapter@_W@__crt_stdio_output@@V?$standard_base@_WV?$stream_output_adapter@_W@__crt_stdio_output@@@2@@__crt_stdio_output@@AEAAXII_N@Z 0000000180013868 f i libucrt:output.obj
 0001:00012868       ??$type_case_integer_parse_into_buffer@I@?$output_processor@_WV?$string_output_adapter@_W@__crt_stdio_output@@V?$standard_base@_WV?$string_output_adapter@_W@__crt_stdio_output@@@2@@__crt_stdio_output@@AEAAXII_N@Z 0000000180013868 f i libucrt:output.obj
 0001:00012904       ??$type_case_integer_parse_into_buffer@_K@?$output_processor@_WV?$stream_output_adapter@_W@__crt_stdio_output@@V?$standard_base@_WV?$stream_output_adapter@_W@__crt_stdio_output@@@2@@__crt_stdio_output@@AEAAX_KI_N@Z 0000000180013904 f i libucrt:output.obj
 0001:00012904       ??$type_case_integer_parse_into_buffer@_K@?$output_processor@_WV?$string_output_adapter@_W@__crt_stdio_output@@V?$standard_base@_WV?$string_output_adapter@_W@__crt_stdio_output@@@2@@__crt_stdio_output@@AEAAX_KI_N@Z 0000000180013904 f i libucrt:output.obj
 0001:000129a0       ??$write_multiple_characters@V?$stream_output_adapter@_W@__crt_stdio_output@@D@__crt_stdio_output@@YAXAEBV?$stream_output_adapter@_W@0@DHQEAH@Z 00000001800139a0 f i libucrt:output.obj
 0001:00012a30       ??$write_multiple_characters@V?$string_output_adapter@_W@__crt_stdio_output@@D@__crt_stdio_output@@YAXAEBV?$string_output_adapter@_W@0@DHQEAH@Z 0000000180013a30 f i libucrt:output.obj
 0001:00012aa0       ??0?$output_processor@_WV?$string_output_adapter@_W@__crt_stdio_output@@V?$standard_base@_WV?$string_output_adapter@_W@__crt_stdio_output@@@2@@__crt_stdio_output@@QEAA@AEBV?$string_output_adapter@_W@1@_KQEB_WQEAU__crt_locale_pointers@@QEAD@Z 0000000180013aa0 f i libucrt:output.obj
 0001:00012aa0       ??0?$output_processor@_WV?$stream_output_adapter@_W@__crt_stdio_output@@V?$standard_base@_WV?$stream_output_adapter@_W@__crt_stdio_output@@@2@@__crt_stdio_output@@QEAA@AEBV?$stream_output_adapter@_W@1@_KQEB_WQEAU__crt_locale_pointers@@QEAD@Z 0000000180013aa0 f i libucrt:output.obj
 0001:00012c10       ?force_decimal_point@__crt_stdio_output@@YAXPEADQEAU__crt_locale_pointers@@@Z 0000000180013c10 f i libucrt:output.obj
 0001:00012c80       ?parse_int_from_format_string@?$output_processor@_WV?$stream_output_adapter@_W@__crt_stdio_output@@V?$standard_base@_WV?$stream_output_adapter@_W@__crt_stdio_output@@@2@@__crt_stdio_output@@AEAA_NQEAH@Z 0000000180013c80 f i libucrt:output.obj
 0001:00012c80       ?parse_int_from_format_string@?$output_processor@_WV?$string_output_adapter@_W@__crt_stdio_output@@V?$standard_base@_WV?$string_output_adapter@_W@__crt_stdio_output@@@2@@__crt_stdio_output@@AEAA_NQEAH@Z 0000000180013c80 f i libucrt:output.obj
 0001:00012d00       ?process@?$output_processor@_WV?$stream_output_adapter@_W@__crt_stdio_output@@V?$standard_base@_WV?$stream_output_adapter@_W@__crt_stdio_output@@@2@@__crt_stdio_output@@QEAAHXZ 0000000180013d00 f i libucrt:output.obj
 0001:00012f78       ?process@?$output_processor@_WV?$string_output_adapter@_W@__crt_stdio_output@@V?$standard_base@_WV?$string_output_adapter@_W@__crt_stdio_output@@@2@@__crt_stdio_output@@QEAAHXZ 0000000180013f78 f i libucrt:output.obj
 0001:000131f4       ?state_case_size@?$output_processor@_WV?$stream_output_adapter@_W@__crt_stdio_output@@V?$standard_base@_WV?$stream_output_adapter@_W@__crt_stdio_output@@@2@@__crt_stdio_output@@AEAA_NXZ 00000001800141f4 f i libucrt:output.obj
 0001:00013398       ?state_case_size@?$output_processor@_WV?$string_output_adapter@_W@__crt_stdio_output@@V?$standard_base@_WV?$string_output_adapter@_W@__crt_stdio_output@@@2@@__crt_stdio_output@@AEAA_NXZ 0000000180014398 f i libucrt:output.obj
 0001:0001353c       ?state_case_type@?$output_processor@_WV?$stream_output_adapter@_W@__crt_stdio_output@@V?$standard_base@_WV?$stream_output_adapter@_W@__crt_stdio_output@@@2@@__crt_stdio_output@@AEAA_NXZ 000000018001453c f i libucrt:output.obj
 0001:00013808       ?state_case_type@?$output_processor@_WV?$string_output_adapter@_W@__crt_stdio_output@@V?$standard_base@_WV?$string_output_adapter@_W@__crt_stdio_output@@@2@@__crt_stdio_output@@AEAA_NXZ 0000000180014808 f i libucrt:output.obj
 0001:00013ad4       ?type_case_Z@?$output_processor@_WV?$stream_output_adapter@_W@__crt_stdio_output@@V?$standard_base@_WV?$stream_output_adapter@_W@__crt_stdio_output@@@2@@__crt_stdio_output@@AEAA_NXZ 0000000180014ad4 f i libucrt:output.obj
 0001:00013ad4       ?type_case_Z@?$output_processor@_WV?$string_output_adapter@_W@__crt_stdio_output@@V?$standard_base@_WV?$string_output_adapter@_W@__crt_stdio_output@@@2@@__crt_stdio_output@@AEAA_NXZ 0000000180014ad4 f i libucrt:output.obj
 0001:00013b54       ?type_case_a@?$output_processor@_WV?$stream_output_adapter@_W@__crt_stdio_output@@V?$standard_base@_WV?$stream_output_adapter@_W@__crt_stdio_output@@@2@@__crt_stdio_output@@AEAA_NXZ 0000000180014b54 f i libucrt:output.obj
 0001:00013b54       ?type_case_a@?$output_processor@_WV?$string_output_adapter@_W@__crt_stdio_output@@V?$standard_base@_WV?$string_output_adapter@_W@__crt_stdio_output@@@2@@__crt_stdio_output@@AEAA_NXZ 0000000180014b54 f i libucrt:output.obj
 0001:00013d98       ?type_case_c_tchar@?$output_processor@_WV?$stream_output_adapter@_W@__crt_stdio_output@@V?$standard_base@_WV?$stream_output_adapter@_W@__crt_stdio_output@@@2@@__crt_stdio_output@@AEAA_N_W@Z 0000000180014d98 f i libucrt:output.obj
 0001:00013d98       ?type_case_c_tchar@?$output_processor@_WV?$string_output_adapter@_W@__crt_stdio_output@@V?$standard_base@_WV?$string_output_adapter@_W@__crt_stdio_output@@@2@@__crt_stdio_output@@AEAA_N_W@Z 0000000180014d98 f i libucrt:output.obj
 0001:00013e40       ?type_case_integer@?$output_processor@_WV?$string_output_adapter@_W@__crt_stdio_output@@V?$standard_base@_WV?$string_output_adapter@_W@__crt_stdio_output@@@2@@__crt_stdio_output@@AEAA_NI_N@Z 0000000180014e40 f i libucrt:output.obj
 0001:00013e40       ?type_case_integer@?$output_processor@_WV?$stream_output_adapter@_W@__crt_stdio_output@@V?$standard_base@_WV?$stream_output_adapter@_W@__crt_stdio_output@@@2@@__crt_stdio_output@@AEAA_NI_N@Z 0000000180014e40 f i libucrt:output.obj
 0001:00013fe0       ?type_case_n@?$output_processor@_WV?$string_output_adapter@_W@__crt_stdio_output@@V?$standard_base@_WV?$string_output_adapter@_W@__crt_stdio_output@@@2@@__crt_stdio_output@@AEAA_NXZ 0000000180014fe0 f i libucrt:output.obj
 0001:00013fe0       ?type_case_n@?$output_processor@_WV?$stream_output_adapter@_W@__crt_stdio_output@@V?$standard_base@_WV?$stream_output_adapter@_W@__crt_stdio_output@@@2@@__crt_stdio_output@@AEAA_NXZ 0000000180014fe0 f i libucrt:output.obj
 0001:000140bc       ?type_case_s@?$output_processor@_WV?$stream_output_adapter@_W@__crt_stdio_output@@V?$standard_base@_WV?$stream_output_adapter@_W@__crt_stdio_output@@@2@@__crt_stdio_output@@AEAA_NXZ 00000001800150bc f i libucrt:output.obj
 0001:000140bc       ?type_case_s@?$output_processor@_WV?$string_output_adapter@_W@__crt_stdio_output@@V?$standard_base@_WV?$string_output_adapter@_W@__crt_stdio_output@@@2@@__crt_stdio_output@@AEAA_NXZ 00000001800150bc f i libucrt:output.obj
 0001:00014184       ?write_stored_string_tchar@?$output_processor@_WV?$stream_output_adapter@_W@__crt_stdio_output@@V?$standard_base@_WV?$stream_output_adapter@_W@__crt_stdio_output@@@2@@__crt_stdio_output@@AEAA_N_W@Z 0000000180015184 f i libucrt:output.obj
 0001:00014270       ?write_stored_string_tchar@?$output_processor@_WV?$string_output_adapter@_W@__crt_stdio_output@@V?$standard_base@_WV?$string_output_adapter@_W@__crt_stdio_output@@@2@@__crt_stdio_output@@AEAA_N_W@Z 0000000180015270 f i libucrt:output.obj
 0001:00014360       ?write_string@?$stream_output_adapter@_W@__crt_stdio_output@@QEBAXQEB_WHQEAH1@Z 0000000180015360 f i libucrt:output.obj
 0001:0001446c       ?write_string@?$string_output_adapter@_W@__crt_stdio_output@@QEBAXQEB_WHQEAH1@Z 000000018001546c f i libucrt:output.obj
 0001:0001452c       __stdio_common_vfwprintf   000000018001552c f   libucrt:output.obj
 0001:000145b8       __stdio_common_vswprintf   00000001800155b8 f   libucrt:output.obj
 0001:000147f0       ??$is_overflow_condition@K@__crt_strtox@@YA_NIK@Z 00000001800157f0 f i libucrt:atox.obj
 0001:0001481c       ??$parse_integer@KV?$c_string_character_source@D@__crt_strtox@@@__crt_strtox@@YAKQEAU__crt_locale_pointers@@V?$c_string_character_source@D@0@H_N@Z 000000018001581c f i libucrt:atox.obj
 0001:00014b30       ??$parse_integer@KV?$c_string_character_source@_W@__crt_strtox@@@__crt_strtox@@YAKQEAU__crt_locale_pointers@@V?$c_string_character_source@_W@0@H_N@Z 0000000180015b30 f i libucrt:atox.obj
 0001:00015204       atol                       0000000180016204 f   libucrt:atox.obj
 0001:00015230       __acrt_call_reportfault    0000000180016230 f   libucrt:invalid_parameter.obj
 0001:0001538c       __acrt_initialize_invalid_parameter_handler 000000018001638c f   libucrt:invalid_parameter.obj
 0001:00015394       _invalid_parameter         0000000180016394 f   libucrt:invalid_parameter.obj
 0001:0001543c       _invalid_parameter_noinfo  000000018001643c f   libucrt:invalid_parameter.obj
 0001:0001545c       _invoke_watson             000000018001645c f   libucrt:invalid_parameter.obj
 0001:000154a4       __acrt_errno_from_os_error 00000001800164a4 f   libucrt:errno.obj
 0001:000154ec       __acrt_errno_map_os_error  00000001800164ec f   libucrt:errno.obj
 0001:0001553c       __doserrno                 000000018001653c f   libucrt:errno.obj
 0001:0001555c       _errno                     000000018001655c f   libucrt:errno.obj
 0001:0001557c       __acrt_initialize_timeset  000000018001657c f   libucrt:timeset.obj
 0001:000155ac       __daylight                 00000001800165ac f   libucrt:timeset.obj
 0001:000155b4       __dstbias                  00000001800165b4 f   libucrt:timeset.obj
 0001:000155bc       __timezone                 00000001800165bc f   libucrt:timeset.obj
 0001:000155c4       __tzname                   00000001800165c4 f   libucrt:timeset.obj
 0001:000155cc       _get_daylight              00000001800165cc f   libucrt:timeset.obj
 0001:000155fc       _get_dstbias               00000001800165fc f   libucrt:timeset.obj
 0001:0001562c       _get_timezone              000000018001662c f   libucrt:timeset.obj
 0001:0001565c       ??$__crt_time_is_leap_year@H@@YA_NH@Z 000000018001665c f i libucrt:gmtime.obj
 0001:00015930       _gmtime64_s                0000000180016930 f   libucrt:gmtime.obj
 0001:00015c54       _localtime64_s             0000000180016c54 f   libucrt:localtime.obj
 0001:00016698       __tzset                    0000000180017698 f   libucrt:tzset.obj
 0001:000166d4       _isindst                   00000001800176d4 f   libucrt:tzset.obj
 0001:00016704       _query_app_type            0000000180017704 f   libucrt:report_runtime_error.obj
 0001:00016834       _itow_s                    0000000180017834 f   libucrt:xtoa.obj
 0001:00016854       _set_error_mode            0000000180017854 f   libucrt:set_error_mode.obj
 0001:00016894       wcscat_s                   0000000180017894 f   libucrt:wcscat_s.obj
 0001:00016914       wcscpy_s                   0000000180017914 f   libucrt:wcscpy_s.obj
 0001:0001697c       wcsncat_s                  000000018001797c f   libucrt:wcsncat_s.obj
 0001:00016aa4       __acrt_show_wide_message_box 0000000180017aa4 f   libucrt:crtmbox.obj
 0001:00016bc0       __acrt_initialize_stdio    0000000180017bc0 f   libucrt:_file.obj
 0001:00016ce0       __acrt_iob_func            0000000180017ce0 f   libucrt:_file.obj
 0001:00016cf4       __acrt_uninitialize_stdio  0000000180017cf4 f   libucrt:_file.obj
 0001:00016d50       _lock_file                 0000000180017d50 f   libucrt:_file.obj
 0001:00016d5c       _unlock_file               0000000180017d5c f   libucrt:_file.obj
 0001:00016d68       __acrt_stdio_flush_nolock  0000000180017d68 f   libucrt:fflush.obj
 0001:00016de0       _fflush_nolock             0000000180017de0 f   libucrt:fflush.obj
 0001:00016e2c       _flushall                  0000000180017e2c f   libucrt:fflush.obj
 0001:00016f1c       fflush                     0000000180017f1c f   libucrt:fflush.obj
 0001:00016f60       ??$?RV<lambda_7a5ef57ff966f610505f1d28a3d40618>@@AEAV<lambda_b721fa326cdb32351d23dfa67958c160>@@V<lambda_5e0fb27672408a07956fe59e48ccb2aa>@@@?$__crt_seh_guarded_call@H@@QEAAH$$QEAV<lambda_7a5ef57ff966f610505f1d28a3d40618>@@AEAV<lambda_b721fa326cdb32351d23dfa67958c160>@@$$QEAV<lambda_5e0fb27672408a07956fe59e48ccb2aa>@@@Z 0000000180017f60 f i libucrt:setvbuf.obj
 0001:00017090       setvbuf                    0000000180018090 f   libucrt:setvbuf.obj
 0001:00017130       ??$?RV<lambda_c36588078e9f5dfd39652860aa6b3aaf>@@AEAV<lambda_ec61778202f4f5fc7e7711acc23c3bca>@@V<lambda_dc9d2797ccde5d239b4a0efae8ebd7db>@@@?$__crt_seh_guarded_call@P6AXH@Z@@QEAAP6AXH@Z$$QEAV<lambda_c36588078e9f5dfd39652860aa6b3aaf>@@AEAV<lambda_ec61778202f4f5fc7e7711acc23c3bca>@@$$QEAV<lambda_dc9d2797ccde5d239b4a0efae8ebd7db>@@@Z 0000000180018130 f i libucrt:signal.obj
 0001:00017178       __acrt_get_sigabrt_handler 0000000180018178 f   libucrt:signal.obj
 0001:000171a8       __acrt_initialize_signal_handlers 00000001800181a8 f   libucrt:signal.obj
 0001:000171c8       raise                      00000001800181c8 f   libucrt:signal.obj
 0001:00017464       __pctype_func              0000000180018464 f   libucrt:ctype.obj
 0001:00017494       _isleadbyte_l              0000000180018494 f i libucrt:_wctype.obj
 0001:000174d4       _isctype_l                 00000001800184d4 f   libucrt:isctype.obj
 0001:00017940       __acrt_LCMapStringA        0000000180018940 f   libucrt:lcmapstringa.obj
 0001:000179d8       ??$?RV<lambda_46352004c1216016012b18bd6f87e700>@@AEAV<lambda_3bd07e1a1191394380780325891bf33f>@@V<lambda_334532d3f185bcaa59b5be82d7d22bff>@@@?$__crt_seh_guarded_call@X@@QEAAX$$QEAV<lambda_46352004c1216016012b18bd6f87e700>@@AEAV<lambda_3bd07e1a1191394380780325891bf33f>@@$$QEAV<lambda_334532d3f185bcaa59b5be82d7d22bff>@@@Z 00000001800189d8 f i libucrt:per_thread_data.obj
 0001:00017a38       ??$?RV<lambda_5e887d1dcbef67a5eb4283622ba103bf>@@AEAV<lambda_4466841279450cc726390878d4a41900>@@V<lambda_341c25c0346d94847f1f3c463c57e077>@@@?$__crt_seh_guarded_call@X@@QEAAX$$QEAV<lambda_5e887d1dcbef67a5eb4283622ba103bf>@@AEAV<lambda_4466841279450cc726390878d4a41900>@@$$QEAV<lambda_341c25c0346d94847f1f3c463c57e077>@@@Z 0000000180018a38 f i libucrt:per_thread_data.obj
 0001:00017a80       ??$?RV<lambda_72d1df2b273a38828b1ce30cbf4cdab5>@@AEAV<lambda_876a65b173b8412d3a47c70a915b0cf4>@@V<lambda_41932305e351933ebe8f8be3ed8bb5dc>@@@?$__crt_seh_guarded_call@X@@QEAAX$$QEAV<lambda_72d1df2b273a38828b1ce30cbf4cdab5>@@AEAV<lambda_876a65b173b8412d3a47c70a915b0cf4>@@$$QEAV<lambda_41932305e351933ebe8f8be3ed8bb5dc>@@@Z 0000000180018a80 f i libucrt:per_thread_data.obj
 0001:00017ac0       ??$?RV<lambda_fb3a7dec4e47f37f22dae91bb15c9095>@@AEAV<lambda_698284760c8add0bfb0756c19673e34b>@@V<lambda_dfb8eca1e75fef3034a8fb18dd509707>@@@?$__crt_seh_guarded_call@X@@QEAAX$$QEAV<lambda_fb3a7dec4e47f37f22dae91bb15c9095>@@AEAV<lambda_698284760c8add0bfb0756c19673e34b>@@$$QEAV<lambda_dfb8eca1e75fef3034a8fb18dd509707>@@@Z 0000000180018ac0 f i libucrt:per_thread_data.obj
 0001:00017d50       __acrt_freeptd             0000000180018d50 f   libucrt:per_thread_data.obj
 0001:00017d94       __acrt_getptd              0000000180018d94 f   libucrt:per_thread_data.obj
 0001:00017e28       __acrt_getptd_noexit       0000000180018e28 f   libucrt:per_thread_data.obj
 0001:00017ec8       __acrt_initialize_ptd      0000000180018ec8 f   libucrt:per_thread_data.obj
 0001:00017f04       __acrt_uninitialize_ptd    0000000180018f04 f   libucrt:per_thread_data.obj
 0001:00017f28       __acrt_update_locale_info  0000000180018f28 f   libucrt:locale_update.obj
 0001:00017f5c       __acrt_update_multibyte_info 0000000180018f5c f   libucrt:locale_update.obj
 0001:00017f90       __acrt_set_locale_changed  0000000180018f90 f   libucrt:wsetlocale.obj
 0001:00017f9c       __acrt_uninitialize_locale 0000000180018f9c f   libucrt:wsetlocale.obj
 0001:00017fe4       __acrt_initialize_locks    0000000180018fe4 f   libucrt:locks.obj
 0001:0001802c       __acrt_lock                000000018001902c f   libucrt:locks.obj
 0001:00018048       __acrt_uninitialize_locks  0000000180019048 f   libucrt:locks.obj
 0001:00018080       __acrt_unlock              0000000180019080 f   libucrt:locks.obj
 0001:0001823c       __acrt_CompareStringEx     000000018001923c f   libucrt:winapi_thunks.obj
 0001:0001832c       __acrt_FlsAlloc            000000018001932c f   libucrt:winapi_thunks.obj
 0001:00018384       __acrt_FlsFree             0000000180019384 f   libucrt:winapi_thunks.obj
 0001:000183dc       __acrt_FlsGetValue         00000001800193dc f   libucrt:winapi_thunks.obj
 0001:00018434       __acrt_FlsSetValue         0000000180019434 f   libucrt:winapi_thunks.obj
 0001:0001849c       __acrt_InitializeCriticalSectionEx 000000018001949c f   libucrt:winapi_thunks.obj
 0001:00018514       __acrt_LCMapStringEx       0000000180019514 f   libucrt:winapi_thunks.obj
 0001:00018604       __acrt_LocaleNameToLCID    0000000180019604 f   libucrt:winapi_thunks.obj
 0001:0001866c       __acrt_MessageBoxW         000000018001966c f   libucrt:winapi_thunks.obj
 0001:000186f4       __acrt_can_show_message_box 00000001800196f4 f   libucrt:winapi_thunks.obj
 0001:00018750       __acrt_get_parent_window   0000000180019750 f   libucrt:winapi_thunks.obj
 0001:000187e0       __acrt_initialize_winapi_thunks 00000001800197e0 f   libucrt:winapi_thunks.obj
 0001:00018818       __acrt_is_interactive      0000000180019818 f   libucrt:winapi_thunks.obj
 0001:000188ec       __acrt_is_packaged_app     00000001800198ec f   libucrt:winapi_thunks.obj
 0001:00018974       __acrt_uninitialize_winapi_thunks 0000000180019974 f   libucrt:winapi_thunks.obj
 0001:00018e94       ?expand_if_necessary@?$argument_list@D@?A0xca0879c4@@AEAAHXZ 0000000180019e94 f i libucrt:argv_wildcards.obj
 0001:00018f5c       __acrt_expand_narrow_argv_wildcards 0000000180019f5c f   libucrt:argv_wildcards.obj
 0001:00018f64       ??$?RV<lambda_99476a1ad63dd22509b5d3e65b0ffc95>@@AEAV<lambda_ad1ced32f4ac17aa236e5ef05d6b3b7c>@@V<lambda_f7424dd8d45958661754dc4f2697e9c3>@@@?$__crt_seh_guarded_call@X@@QEAAX$$QEAV<lambda_99476a1ad63dd22509b5d3e65b0ffc95>@@AEAV<lambda_ad1ced32f4ac17aa236e5ef05d6b3b7c>@@$$QEAV<lambda_f7424dd8d45958661754dc4f2697e9c3>@@@Z 0000000180019f64 f i libucrt:mbctype.obj
 0001:00019660       __acrt_initialize_multibyte 000000018001a660 f   libucrt:mbctype.obj
 0001:00019688       __acrt_update_thread_multibyte_data 000000018001a688 f   libucrt:mbctype.obj
 0001:00019748       _setmbcp_nolock            000000018001a748 f   libucrt:mbctype.obj
 0001:00019a68       _ismbblead                 000000018001aa68 f   libucrt:ismbbyte.obj
 0001:00019a7c       __acrt_initialize_command_line 000000018001aa7c f   libucrt:argv_data.obj
 0001:00019aa4       __dcrt_get_narrow_environment_from_os 000000018001aaa4 f   libucrt:get_environment_from_os.obj
 0001:00019f84       __dcrt_set_variable_in_narrow_environment_nolock 000000018001af84 f   libucrt:setenv.obj
 0001:00019f8c       _recalloc                  000000018001af8c f   libucrt:recalloc.obj
 0001:00019f94       _recalloc_base             000000018001af94 f   libucrt:recalloc.obj
 0001:0001a02c       __acrt_initialize_heap     000000018001b02c f   libucrt:heap_handle.obj
 0001:0001a048       __acrt_uninitialize_heap   000000018001b048 f   libucrt:heap_handle.obj
 0001:0001a23c       __acrt_initialize_lowio    000000018001b23c f   libucrt:ioinit.obj
 0001:0001a278       __acrt_uninitialize_lowio  000000018001b278 f   libucrt:ioinit.obj
 0001:0001a2b8       __acrt_execute_initializers 000000018001b2b8 f   libucrt:shared_initialization.obj
 0001:0001a34c       __acrt_execute_uninitializers 000000018001b34c f   libucrt:shared_initialization.obj
 0001:0001a39c       __acrt_has_user_matherr    000000018001b39c f   libucrt:matherr.obj
 0001:0001a3bc       __acrt_initialize_user_matherr 000000018001b3bc f   libucrt:matherr.obj
 0001:0001a3c4       __acrt_invoke_user_matherr 000000018001b3c4 f   libucrt:matherr.obj
 0001:0001a40c       __acrt_stdio_begin_temporary_buffering_nolock 000000018001b40c f   libucrt:_sftbuf.obj
 0001:0001a4dc       __acrt_stdio_end_temporary_buffering_nolock 000000018001b4dc f   libucrt:_sftbuf.obj
 0001:0001a518       _query_new_mode            000000018001b518 f   libucrt:new_mode.obj
 0001:0001a520       ??$make_c_string_character_source@D$$T@__crt_strtox@@YA?AV?$c_string_character_source@D@0@QEBD$$T@Z 000000018001b520 f i libucrt:atox.obj
 0001:0001a520       ??$make_c_string_character_source@_WPEAPEA_W@__crt_strtox@@YA?AV?$c_string_character_source@_W@0@QEB_WQEAPEA_W@Z 000000018001b520 f i libucrt:strtox.obj
 0001:0001a534       wcstol                     000000018001b534 f   libucrt:strtox.obj
 0001:0001a564       _mbtowc_l                  000000018001b564 f   libucrt:mbtowc.obj
 0001:0001a6ac       mbtowc                     000000018001b6ac f   libucrt:mbtowc.obj
 0001:0001a6b4       _wctomb_s_l                000000018001b6b4 f   libucrt:wctomb.obj
 0001:0001a838       wctomb_s                   000000018001b838 f   libucrt:wctomb.obj
 0001:0001a84c       wcsnlen                    000000018001b84c f   libucrt:strnlen.obj
 0001:0001aa3c       ?__acrt_fp_classify@@YA?AW4__acrt_fp_class@@AEBN@Z 000000018001ba3c f i libucrt:cvt.obj
 0001:0001b474       __acrt_fp_format           000000018001c474 f   libucrt:cvt.obj
 0001:0001b6b8       _fputwc_nolock             000000018001c6b8 f   libucrt:fputwc.obj
 0001:0001b834       _fileno                    000000018001c834 f   libucrt:fileno.obj
 0001:0001b85c       _fputc_nolock              000000018001c85c f   libucrt:fputc.obj
 0001:0001b874       _get_printf_count_output   000000018001c874 f   libucrt:printf_count_output.obj
 0001:0001b88c       iswctype                   000000018001c88c f   libucrt:iswctype.obj
 0001:0001ba84       getenv_s                   000000018001ca84 f   libucrt:getenv.obj
 0001:0001ba8c       strncpy_s                  000000018001ca8c f   libucrt:strncpy_s.obj
 0001:0001bb60       ___lc_codepage_func        000000018001cb60 f   libucrt:initctype.obj
 0001:0001bb90       _fcloseall                 000000018001cb90 f   libucrt:closeall.obj
 0001:0001bc44       __acrt_stdio_free_buffer_nolock 000000018001cc44 f   libucrt:_freebuf.obj
 0001:0001bc84       ??$?RV<lambda_b521505b218e5242e90febf6bfebc422>@@AEAV<lambda_6978c1fb23f02e42e1d9e99668cc68aa>@@V<lambda_314360699dd331753a4119843814e9a7>@@@?$__crt_seh_guarded_call@H@@QEAAH$$QEAV<lambda_b521505b218e5242e90febf6bfebc422>@@AEAV<lambda_6978c1fb23f02e42e1d9e99668cc68aa>@@$$QEAV<lambda_314360699dd331753a4119843814e9a7>@@@Z 000000018001cc84 f i libucrt:commit.obj
 0001:0001bd10       _commit                    000000018001cd10 f   libucrt:commit.obj
 0001:0001c344       _write                     000000018001d344 f   libucrt:write.obj
 0001:0001c430       _write_nolock              000000018001d430 f   libucrt:write.obj
 0001:0001c714       __acrt_GetStringTypeA      000000018001d714 f   libucrt:getstringtypea.obj
 0001:0001c8c8       __strncnt                  000000018001d8c8 f   libucrt:strncnt.obj
 0001:0001c8e0       __acrt_add_locale_ref      000000018001d8e0 f   libucrt:locale_refcounting.obj
 0001:0001c96c       __acrt_free_locale         000000018001d96c f   libucrt:locale_refcounting.obj
 0001:0001cae4       __acrt_locale_add_lc_time_reference 000000018001dae4 f   libucrt:locale_refcounting.obj
 0001:0001cb0c       __acrt_locale_free_lc_time_if_unreferenced 000000018001db0c f   libucrt:locale_refcounting.obj
 0001:0001cb44       __acrt_locale_release_lc_time_reference 000000018001db44 f   libucrt:locale_refcounting.obj
 0001:0001cb6c       __acrt_release_locale_ref  000000018001db6c f   libucrt:locale_refcounting.obj
 0001:0001cc14       __acrt_update_thread_locale_data 000000018001dc14 f   libucrt:locale_refcounting.obj
 0001:0001cc84       _updatetlocinfoEx_nolock   000000018001dc84 f   libucrt:locale_refcounting.obj
 0001:0001ccec       __acrt_locale_free_monetary 000000018001dcec f   libucrt:initmon.obj
 0001:0001cdf8       __acrt_locale_free_numeric 000000018001ddf8 f   libucrt:initnum.obj
 0001:0001cebc       __acrt_locale_free_time    000000018001debc f   libucrt:inittime.obj
 0001:0001d08c       __acrt_DownlevelLocaleNameToLCID 000000018001e08c f   libucrt:lcidtoname_downlevel.obj
 0001:0001d190       qsort                      000000018001e190 f   libucrt:qsort.obj
 0001:0001d4c4       strpbrk                    000000018001e4c4 f   libucrt:strpbrk.obj
 0001:0001d564       _mbsdec                    000000018001e564 f   libucrt:mbsdec.obj
 0001:0001d56c       _mbsdec_l                  000000018001e56c f   libucrt:mbsdec.obj
 0001:0001d61c       _strnicoll                 000000018001e61c f   libucrt:strnicol.obj
 0001:0001d634       _strnicoll_l               000000018001e634 f   libucrt:strnicol.obj
 0001:0001d734       _msize                     000000018001e734 f   libucrt:msize.obj
 0001:0001d770       _realloc_base              000000018001e770 f   libucrt:realloc_base.obj
 0001:0001d7f4       __acrt_lowio_create_handle_array 000000018001e7f4 f   libucrt:osfinfo.obj
 0001:0001d88c       __acrt_lowio_destroy_handle_array 000000018001e88c f   libucrt:osfinfo.obj
 0001:0001d8dc       __acrt_lowio_ensure_fh_exists 000000018001e8dc f   libucrt:osfinfo.obj
 0001:0001d994       __acrt_lowio_lock_fh       000000018001e994 f   libucrt:osfinfo.obj
 0001:0001d9b8       __acrt_lowio_unlock_fh     000000018001e9b8 f   libucrt:osfinfo.obj
 0001:0001d9dc       _free_osfhnd               000000018001e9dc f   libucrt:osfinfo.obj
 0001:0001da98       _get_osfhandle             000000018001ea98 f   libucrt:osfinfo.obj
 0001:0001db10       _isatty                    000000018001eb10 f   libucrt:isatty.obj
 0001:0001db70       __acrt_fp_strflt_to_string 000000018001eb70 f   libucrt:_fptostr.obj
 0001:0001dc30       ?divide@__crt_strtox@@YA_KAEAUbig_integer@1@AEBU21@@Z 000000018001ec30 f i libucrt:cfout.obj
 0001:0001e100       __acrt_fltout              000000018001f100 f   libucrt:cfout.obj
 0001:0001f704       __acrt_stdio_flush_and_write_narrow_nolock 0000000180020704 f   libucrt:_flsbuf.obj
 0001:0001f7ec       __acrt_stdio_flush_and_write_wide_nolock 00000001800207ec f   libucrt:_flsbuf.obj
 0001:0001f8d8       _fclose_nolock             00000001800208d8 f   libucrt:fclose.obj
 0001:0001f95c       fclose                     000000018002095c f   libucrt:fclose.obj
 0001:0001fb54       _lseeki64                  0000000180020b54 f   libucrt:lseek.obj
 0001:0001fb5c       _lseeki64_nolock           0000000180020b5c f   libucrt:lseek.obj
 0001:0001fb64       _putwch_nolock             0000000180020b64 f   libucrt:putwch.obj
 0001:0001fbc0       __ascii_strnicmp           0000000180020bc0 f   libucrt:strnicmp.obj
 0001:0001fc08       _strnicmp                  0000000180020c08 f   libucrt:strnicmp.obj
 0001:0001fc58       _strnicmp_l                0000000180020c58 f   libucrt:strnicmp.obj
 0001:000200c8       __acrt_CompareStringA      00000001800210c8 f   libucrt:comparestringa.obj
 0001:00020154       fegetenv                   0000000180021154 f   libucrt:fegetenv.obj
 0001:00020174       fesetenv                   0000000180021174 f   libucrt:fesetenv.obj
 0001:000201c0       feholdexcept               00000001800211c0 f   libucrt:feholdexcept.obj
 0001:00020210       ceil                       0000000180021210 f   libucrt:ceil.obj
 0001:000202e0       log10                      00000001800212e0 f   libucrt:log10.obj
 0001:0002088c       __acrt_stdio_allocate_buffer_nolock 000000018002188c f   libucrt:_getbuf.obj
 0001:000208f0       ??$?RV<lambda_bfedae4ebbf01fab1bb6dcc6a9e276e0>@@AEAV<lambda_2fe9b910cf3cbf4a0ab98a02ba45b3ec>@@V<lambda_237c231691f317818eb88cc1d5d642d6>@@@?$__crt_seh_guarded_call@H@@QEAAH$$QEAV<lambda_bfedae4ebbf01fab1bb6dcc6a9e276e0>@@AEAV<lambda_2fe9b910cf3cbf4a0ab98a02ba45b3ec>@@$$QEAV<lambda_237c231691f317818eb88cc1d5d642d6>@@@Z 00000001800218f0 f i libucrt:close.obj
 0001:00020964       _close                     0000000180021964 f   libucrt:close.obj
 0001:00020a08       _close_nolock              0000000180021a08 f   libucrt:close.obj
 0001:00020ac4       ?__acrt_stdio_free_stream@@YAXV__crt_stdio_stream@@@Z 0000000180021ac4 f   libucrt:stream.obj
 0001:00020b08       __dcrt_lowio_initialize_console_output 0000000180021b08 f   libucrt:initcon.obj
 0001:00020b44       __dcrt_terminate_console_output 0000000180021b44 f   libucrt:initcon.obj
 0001:00020b64       _getfpcontrolword          0000000180021b64 f   libucrt:_fenvutils.obj
 0001:00020b7c       _getfpstatusword           0000000180021b7c f   libucrt:_fenvutils.obj
 0001:00020b90       _setfpcontrolword          0000000180021b90 f   libucrt:_fenvutils.obj
 0001:00020b9c       _setfpstatusword           0000000180021b9c f   libucrt:_fenvutils.obj
 0001:00020bec       _clearfp                   0000000180021bec f   libucrt:ieee.obj
 0001:00020c40       _controlfp                 0000000180021c40 f   libucrt:ieee.obj
 0001:00020c4c       _statusfp                  0000000180021c4c f   libucrt:ieee.obj
 0001:00021050       _handle_error              0000000180022050 f   libucrt:libm_error.obj
 0001:00021178       _handle_nan                0000000180022178 f   libucrt:libm_error.obj
 0001:000211a0       __acrt_initialize_fma3     00000001800221a0 f   libucrt:fma3_available.obj
 0001:00021210       _log10_special             0000000180022210 f   libucrt:log_special.obj
 0001:000212e0       _get_fpsr                  00000001800222e0 f   libucrt:fpsr.obj
 0001:000212f0       _set_fpsr                  00000001800222f0 f   libucrt:fpsr.obj
 0001:000212fa       _fclrf                     00000001800222fa f   libucrt:fpsr.obj
 0001:0002130e       _frnd                      000000018002230e f   libucrt:fpsr.obj
 0001:00021330       _raise_exc                 0000000180022330 f   libucrt:fpexcept.obj
 0001:00021358       _raise_exc_ex              0000000180022358 f   libucrt:fpexcept.obj
 0001:00021660       _set_errno_from_matherr    0000000180022660 f   libucrt:fpexcept.obj
 0001:00021690       _clrfp                     0000000180022690 f   libucrt:fpctrl.obj
 0001:000216b0       _ctrlfp                    00000001800226b0 f   libucrt:fpctrl.obj
 0001:0002172c       _set_statfp                000000018002272c f   libucrt:fpctrl.obj
 0001:0002174c       _statfp                    000000018002274c f   libucrt:fpctrl.obj
 0001:0002175e       IsProcessorFeaturePresent  000000018002275e f   kernel32:KERNEL32.dll
 0001:00021764       RtlUnwindEx                0000000180022764 f   kernel32:KERNEL32.dll
 0001:0002176c       ?DloadAcquireSectionWriteAccess@@YAXXZ 000000018002276c f i DelayImp:delayhlp.obj
 0001:00021828       ?DloadGetSRWLockFunctionPointers@@YAEXZ 0000000180022828 f i DelayImp:delayhlp.obj
 0001:000218c4       ?DloadMakePermanentImageCommit@@YAXPEAX_K@Z 00000001800228c4 f i DelayImp:delayhlp.obj
 0001:0002195c       ?DloadObtainSection@@YAPEAXPEAK0@Z 000000018002295c f i DelayImp:delayhlp.obj
 0001:000219f4       ?DloadProtectSection@@YAXKPEAK@Z 00000001800229f4 f i DelayImp:delayhlp.obj
 0001:00021a84       ?DloadReleaseSectionWriteAccess@@YAXXZ 0000000180022a84 f i DelayImp:delayhlp.obj
 0001:00021b28       __delayLoadHelper2         0000000180022b28 f   DelayImp:delayhlp.obj
 0001:00021e30       _FindPESection             0000000180022e30 f   LIBCMT:pesect.obj
 0001:00021e80       _IsNonwritableInCurrentImage 0000000180022e80 f   LIBCMT:pesect.obj
 0001:00021ed0       _ValidateImageBase         0000000180022ed0 f   LIBCMT:pesect.obj
 0001:00021f00       __GSHandlerCheck           0000000180022f00 f   LIBCMT:_gshandler_.obj
 0001:00021f20       __GSHandlerCheckCommon     0000000180022f20 f   LIBCMT:_gshandler_.obj
 0001:00021f90       _alloca_probe              0000000180022f90 f   LIBCMT:_chkstk_.obj
 0001:00021f90       __chkstk                   0000000180022f90 f   LIBCMT:_chkstk_.obj
 0001:00022000       memcpy                     0000000180023000 f   libvcruntime:memcpy.obj
 0001:00022000       memmove                    0000000180023000 f   libvcruntime:memcpy.obj
 0001:00022450       memcmp                     0000000180023450 f   libvcruntime:memcmp.obj
 0001:00022518       strchr                     0000000180023518 f   libvcruntime:strchr.obj
 0001:000225a4       strrchr                    00000001800235a4 f   libvcruntime:strrchr.obj
 0001:00022700       _guard_dispatch_icall_nop  0000000180023700 f   LIBCMT:_guard_dispatch_.obj
 0002:00000000       __imp_GetModuleHandleW     0000000180024000     kernel32:KERNEL32.dll
 0002:00000008       __imp_VirtualQuery         0000000180024008     kernel32:KERNEL32.dll
 0002:00000010       __imp_VirtualProtect       0000000180024010     kernel32:KERNEL32.dll
 0002:00000018       __imp_GetSystemInfo        0000000180024018     kernel32:KERNEL32.dll
 0002:00000020       __imp_CreateFileW          0000000180024020     kernel32:KERNEL32.dll
 0002:00000028       __imp_SetFilePointerEx     0000000180024028     kernel32:KERNEL32.dll
 0002:00000030       __imp_SetStdHandle         0000000180024030     kernel32:KERNEL32.dll
 0002:00000038       __imp_HeapReAlloc          0000000180024038     kernel32:KERNEL32.dll
 0002:00000040       __imp_HeapSize             0000000180024040     kernel32:KERNEL32.dll
 0002:00000048       __imp_GetConsoleMode       0000000180024048     kernel32:KERNEL32.dll
 0002:00000050       __imp_GetConsoleCP         0000000180024050     kernel32:KERNEL32.dll
 0002:00000058       __imp_FlushFileBuffers     0000000180024058     kernel32:KERNEL32.dll
 0002:00000060       __imp_GetStringTypeW       0000000180024060     kernel32:KERNEL32.dll
 0002:00000068       __imp_GetProcessHeap       0000000180024068     kernel32:KERNEL32.dll
 0002:00000070       __imp_SetEnvironmentVariableA 0000000180024070     kernel32:KERNEL32.dll
 0002:00000078       __imp_FreeEnvironmentStringsW 0000000180024078     kernel32:KERNEL32.dll
 0002:00000080       __imp_GetEnvironmentStringsW 0000000180024080     kernel32:KERNEL32.dll
 0002:00000088       __imp_GetCommandLineW      0000000180024088     kernel32:KERNEL32.dll
 0002:00000090       __imp_GetCommandLineA      0000000180024090     kernel32:KERNEL32.dll
 0002:00000098       __imp_GetCPInfo            0000000180024098     kernel32:KERNEL32.dll
 0002:000000a0       __imp_GetOEMCP             00000001800240a0     kernel32:KERNEL32.dll
 0002:000000a8       __imp_IsValidCodePage      00000001800240a8     kernel32:KERNEL32.dll
 0002:000000b0       __imp_FindNextFileA        00000001800240b0     kernel32:KERNEL32.dll
 0002:000000b8       __imp_RtlCaptureContext    00000001800240b8     kernel32:KERNEL32.dll
 0002:000000c0       __imp_RtlLookupFunctionEntry 00000001800240c0     kernel32:KERNEL32.dll
 0002:000000c8       __imp_RtlVirtualUnwind     00000001800240c8     kernel32:KERNEL32.dll
 0002:000000d0       __imp_UnhandledExceptionFilter 00000001800240d0     kernel32:KERNEL32.dll
 0002:000000d8       __imp_SetUnhandledExceptionFilter 00000001800240d8     kernel32:KERNEL32.dll
 0002:000000e0       __imp_GetCurrentProcess    00000001800240e0     kernel32:KERNEL32.dll
 0002:000000e8       __imp_TerminateProcess     00000001800240e8     kernel32:KERNEL32.dll
 0002:000000f0       __imp_IsProcessorFeaturePresent 00000001800240f0     kernel32:KERNEL32.dll
 0002:000000f8       __imp_IsDebuggerPresent    00000001800240f8     kernel32:KERNEL32.dll
 0002:00000100       __imp_GetStartupInfoW      0000000180024100     kernel32:KERNEL32.dll
 0002:00000108       __imp_QueryPerformanceCounter 0000000180024108     kernel32:KERNEL32.dll
 0002:00000110       __imp_GetCurrentProcessId  0000000180024110     kernel32:KERNEL32.dll
 0002:00000118       __imp_GetCurrentThreadId   0000000180024118     kernel32:KERNEL32.dll
 0002:00000120       __imp_GetSystemTimeAsFileTime 0000000180024120     kernel32:KERNEL32.dll
 0002:00000128       __imp_InitializeSListHead  0000000180024128     kernel32:KERNEL32.dll
 0002:00000130       __imp_RtlUnwindEx          0000000180024130     kernel32:KERNEL32.dll
 0002:00000138       __imp_RtlPcToFileHeader    0000000180024138     kernel32:KERNEL32.dll
 0002:00000140       __imp_RaiseException       0000000180024140     kernel32:KERNEL32.dll
 0002:00000148       __imp_InterlockedFlushSList 0000000180024148     kernel32:KERNEL32.dll
 0002:00000150       __imp_GetLastError         0000000180024150     kernel32:KERNEL32.dll
 0002:00000158       __imp_SetLastError         0000000180024158     kernel32:KERNEL32.dll
 0002:00000160       __imp_EnterCriticalSection 0000000180024160     kernel32:KERNEL32.dll
 0002:00000168       __imp_LeaveCriticalSection 0000000180024168     kernel32:KERNEL32.dll
 0002:00000170       __imp_DeleteCriticalSection 0000000180024170     kernel32:KERNEL32.dll
 0002:00000178       __imp_InitializeCriticalSectionAndSpinCount 0000000180024178     kernel32:KERNEL32.dll
 0002:00000180       __imp_TlsAlloc             0000000180024180     kernel32:KERNEL32.dll
 0002:00000188       __imp_TlsGetValue          0000000180024188     kernel32:KERNEL32.dll
 0002:00000190       __imp_TlsSetValue          0000000180024190     kernel32:KERNEL32.dll
 0002:00000198       __imp_TlsFree              0000000180024198     kernel32:KERNEL32.dll
 0002:000001a0       __imp_FreeLibrary          00000001800241a0     kernel32:KERNEL32.dll
 0002:000001a8       __imp_GetProcAddress       00000001800241a8     kernel32:KERNEL32.dll
 0002:000001b0       __imp_LoadLibraryExW       00000001800241b0     kernel32:KERNEL32.dll
 0002:000001b8       __imp_GetStdHandle         00000001800241b8     kernel32:KERNEL32.dll
 0002:000001c0       __imp_GetFileType          00000001800241c0     kernel32:KERNEL32.dll
 0002:000001c8       __imp_GetModuleFileNameA   00000001800241c8     kernel32:KERNEL32.dll
 0002:000001d0       __imp_GetModuleFileNameW   00000001800241d0     kernel32:KERNEL32.dll
 0002:000001d8       __imp_GetModuleHandleExW   00000001800241d8     kernel32:KERNEL32.dll
 0002:000001e0       __imp_WriteConsoleW        00000001800241e0     kernel32:KERNEL32.dll
 0002:000001e8       __imp_ExitProcess          00000001800241e8     kernel32:KERNEL32.dll
 0002:000001f0       __imp_MultiByteToWideChar  00000001800241f0     kernel32:KERNEL32.dll
 0002:000001f8       __imp_WideCharToMultiByte  00000001800241f8     kernel32:KERNEL32.dll
 0002:00000200       __imp_HeapFree             0000000180024200     kernel32:KERNEL32.dll
 0002:00000208       __imp_HeapAlloc            0000000180024208     kernel32:KERNEL32.dll
 0002:00000210       __imp_GetTimeZoneInformation 0000000180024210     kernel32:KERNEL32.dll
 0002:00000218       __imp_WriteFile            0000000180024218     kernel32:KERNEL32.dll
 0002:00000220       __imp_OutputDebugStringW   0000000180024220     kernel32:KERNEL32.dll
 0002:00000228       __imp_CloseHandle          0000000180024228     kernel32:KERNEL32.dll
 0002:00000230       __imp_WaitForSingleObjectEx 0000000180024230     kernel32:KERNEL32.dll
 0002:00000238       __imp_CreateThread         0000000180024238     kernel32:KERNEL32.dll
 0002:00000240       __imp_GetACP               0000000180024240     kernel32:KERNEL32.dll
 0002:00000248       __imp_CompareStringW       0000000180024248     kernel32:KERNEL32.dll
 0002:00000250       __imp_LCMapStringW         0000000180024250     kernel32:KERNEL32.dll
 0002:00000258       __imp_FindClose            0000000180024258     kernel32:KERNEL32.dll
 0002:00000260       __imp_FindFirstFileExA     0000000180024260     kernel32:KERNEL32.dll
 0002:00000268       __imp_LoadLibraryExA       0000000180024268     kernel32:KERNEL32.dll
 0002:00000270       \177KERNEL32_NULL_THUNK_DATA 0000000180024270     kernel32:KERNEL32.dll
 0002:00000278       __imp_SQLMoreResults       0000000180024278     odbc32:ODBC32.dll
 0002:00000280       __imp_SQLFreeStmt          0000000180024280     odbc32:ODBC32.dll
 0002:00000288       __imp_SQLPrepareW          0000000180024288     odbc32:ODBC32.dll
 0002:00000290       __imp_SQLExecute           0000000180024290     odbc32:ODBC32.dll
 0002:00000298       __imp_SQLRowCount          0000000180024298     odbc32:ODBC32.dll
 0002:000002a0       __imp_SQLDriverConnectW    00000001800242a0     odbc32:ODBC32.dll
 0002:000002a8       __imp_SQLDisconnect        00000001800242a8     odbc32:ODBC32.dll
 0002:000002b0       __imp_SQLBindParameter     00000001800242b0     odbc32:ODBC32.dll
 0002:000002b8       __imp_SQLExecDirectW       00000001800242b8     odbc32:ODBC32.dll
 0002:000002c0       __imp_SQLColumnsW          00000001800242c0     odbc32:ODBC32.dll
 0002:000002c8       __imp_SQLGetFunctions      00000001800242c8     odbc32:ODBC32.dll
 0002:000002d0       __imp_SQLSetConnectAttrW   00000001800242d0     odbc32:ODBC32.dll
 0002:000002d8       __imp_SQLGetInfoW          00000001800242d8     odbc32:ODBC32.dll
 0002:000002e0       __imp_SQLEndTran           00000001800242e0     odbc32:ODBC32.dll
 0002:000002e8       __imp_SQLTablesW           00000001800242e8     odbc32:ODBC32.dll
 0002:000002f0       __imp_SQLGetData           00000001800242f0     odbc32:ODBC32.dll
 0002:000002f8       __imp_SQLNumResultCols     00000001800242f8     odbc32:ODBC32.dll
 0002:00000300       __imp_SQLColAttributeW     0000000180024300     odbc32:ODBC32.dll
 0002:00000308       __imp_SQLSetEnvAttr        0000000180024308     odbc32:ODBC32.dll
 0002:00000310       __imp_SQLFetch             0000000180024310     odbc32:ODBC32.dll
 0002:00000318       __imp_SQLAllocHandle       0000000180024318     odbc32:ODBC32.dll
 0002:00000320       __imp_SQLGetDiagFieldW     0000000180024320     odbc32:ODBC32.dll
 0002:00000328       __imp_SQLFreeHandle        0000000180024328     odbc32:ODBC32.dll
 0002:00000330       __imp_SQLGetDiagRecW       0000000180024330     odbc32:ODBC32.dll
 0002:00000338       \177ODBC32_NULL_THUNK_DATA 0000000180024338     odbc32:ODBC32.dll
 0002:00000340       __guard_check_icall_fptr   0000000180024340     LIBCMT:guard_support.obj
 0002:00000348       __guard_dispatch_icall_fptr 0000000180024348     LIBCMT:guard_support.obj
 0002:00000350       __xc_a                     0000000180024350     LIBCMT:initializers.obj
 0002:00000398       _register_odbc_bindings_   0000000180024398     odbc.obj
 0002:000003a0       __xc_z                     00000001800243a0     LIBCMT:initializers.obj
 0002:000003a8       __xi_a                     00000001800243a8     LIBCMT:initializers.obj
 0002:000003b0       __acrt_timeset_initializer 00000001800243b0     libucrt:timeset_initializer.obj
 0002:000003b8       __acrt_stdio_initializer   00000001800243b8     libucrt:stdio_initializer.obj
 0002:000003c0       __acrt_multibyte_initializer 00000001800243c0     libucrt:multibyte_initializer.obj
 0002:000003c8       __acrt_tran_fma3_initializer 00000001800243c8     libucrt:fma3_initializer.obj
 0002:000003d0       __xi_z                     00000001800243d0     LIBCMT:initializers.obj
 0002:000003d8       __xp_a                     00000001800243d8     LIBCMT:initializers.obj
 0002:000003e0       __acrt_locale_terminator   00000001800243e0     libucrt:locale_initializer.obj
 0002:000003e8       __dcrt_console_output_terminator 00000001800243e8     libucrt:console_output_initializer.obj
 0002:000003f0       __acrt_stdio_terminator    00000001800243f0     libucrt:stdio_initializer.obj
 0002:000003f8       __xp_z                     00000001800243f8     LIBCMT:initializers.obj
 0002:00000400       __xt_a                     0000000180024400     LIBCMT:initializers.obj
 0002:00000408       __xt_z                     0000000180024408     LIBCMT:initializers.obj
 0002:00000410       __sz_node_exe              0000000180024410     node:node.exe
 0002:00000420       _pDefaultRawDllMain        0000000180024420     LIBCMT:dll_dllmain.obj
 0002:00000420       _pRawDllMain               0000000180024420     LIBCMT:dll_dllmain.obj
 0002:00000440       ??_7exception@std@@6B@     0000000180024440     LIBCMT:throw_bad_alloc.obj
 0002:00000450       ??_C@_0BC@EOODALEL@Unknown?5exception?$AA@ 0000000180024450     LIBCMT:throw_bad_alloc.obj
 0002:00000470       ??_7bad_alloc@std@@6B@     0000000180024470     LIBCMT:throw_bad_alloc.obj
 0002:00000480       ??_C@_0P@GHFPNOJB@bad?5allocation?$AA@ 0000000180024480     LIBCMT:throw_bad_alloc.obj
 0002:00000498       ??_7bad_array_new_length@std@@6B@ 0000000180024498     LIBCMT:throw_bad_alloc.obj
 0002:000004a8       ??_C@_0BF@KINCDENJ@bad?5array?5new?5length?$AA@ 00000001800244a8     LIBCMT:throw_bad_alloc.obj
 0002:000004c8       ??_7type_info@@6B@         00000001800244c8     LIBCMT:std_type_info_static.obj
 0002:00000530       ??_C@_1BC@DNHGCMLG@?$AAa?$AAd?$AAv?$AAa?$AAp?$AAi?$AA3?$AA2?$AA?$AA@ 0000000180024530     libvcruntime:winapi_downlevel.obj
 0002:00000548       ??_C@_1DM@KHCHBNEB@?$AAa?$AAp?$AAi?$AA?9?$AAm?$AAs?$AA?9?$AAw?$AAi?$AAn?$AA?9?$AAc?$AAo?$AAr?$AAe?$AA?9?$AAf?$AAi?$AAb?$AAe?$AAr?$AAs?$AA?9?$AAl?$AA1?$AA?9?$AA1?$AA?9?$AA1?$AA?$AA@ 0000000180024548     libvcruntime:winapi_downlevel.obj
 0002:00000588       ??_C@_1DK@LPPGFMPP@?$AAa?$AAp?$AAi?$AA?9?$AAm?$AAs?$AA?9?$AAw?$AAi?$AAn?$AA?9?$AAc?$AAo?$AAr?$AAe?$AA?9?$AAs?$AAy?$AAn?$AAc?$AAh?$AA?9?$AAl?$AA1?$AA?9?$AA2?$AA?9?$AA0?$AA?$AA@ 0000000180024588     libvcruntime:winapi_downlevel.obj
 0002:000005c8       ??_C@_1BC@GDMECMAK@?$AAk?$AAe?$AAr?$AAn?$AAe?$AAl?$AA3?$AA2?$AA?$AA@ 00000001800245c8     libvcruntime:winapi_downlevel.obj
 0002:000005e8       ??_C@_08KNHFBNJ@FlsAlloc?$AA@ 00000001800245e8     libvcruntime:winapi_downlevel.obj
 0002:00000600       ??_C@_07PEJMOBNF@FlsFree?$AA@ 0000000180024600     libvcruntime:winapi_downlevel.obj
 0002:00000610       ??_C@_0M@GDNOONDI@FlsGetValue?$AA@ 0000000180024610     libvcruntime:winapi_downlevel.obj
 0002:00000628       ??_C@_0M@JCPCPOEF@FlsSetValue?$AA@ 0000000180024628     libvcruntime:winapi_downlevel.obj
 0002:00000640       ??_C@_0BM@HCFOFFN@InitializeCriticalSectionEx?$AA@ 0000000180024640     libvcruntime:winapi_downlevel.obj
 0002:00000980       ??_C@_08EHJDFFNH@__based?$CI?$AA@ 0000000180024980     libvcruntime:undname.obj
 0002:00000990       ??_C@_07KOLFKCDI@__cdecl?$AA@ 0000000180024990     libvcruntime:undname.obj
 0002:00000998       ??_C@_08GHMPAG@__pascal?$AA@ 0000000180024998     libvcruntime:undname.obj
 0002:000009a8       ??_C@_09IFJBGAPI@__stdcall?$AA@ 00000001800249a8     libvcruntime:undname.obj
 0002:000009b8       ??_C@_0L@NPHFGOKO@__thiscall?$AA@ 00000001800249b8     libvcruntime:undname.obj
 0002:000009c8       ??_C@_0L@JMKHOMEK@__fastcall?$AA@ 00000001800249c8     libvcruntime:undname.obj
 0002:000009d8       ??_C@_0N@BCKKPABJ@__vectorcall?$AA@ 00000001800249d8     libvcruntime:undname.obj
 0002:000009e8       ??_C@_09HIJEGCPM@__clrcall?$AA@ 00000001800249e8     libvcruntime:undname.obj
 0002:000009f4       ??_C@_06GHPCKEAG@__eabi?$AA@ 00000001800249f4     libvcruntime:undname.obj
 0002:00000a00       ??_C@_07JOMMBBKO@__ptr64?$AA@ 0000000180024a00     libvcruntime:undname.obj
 0002:00000a08       ??_C@_0L@PILCLIHE@__restrict?$AA@ 0000000180024a08     libvcruntime:undname.obj
 0002:00000a18       ??_C@_0M@GFIIJFMG@__unaligned?$AA@ 0000000180024a18     libvcruntime:undname.obj
 0002:00000a28       ??_C@_09DHDLOLLB@restrict?$CI?$AA@ 0000000180024a28     libvcruntime:undname.obj
 0002:00000a34       ??_C@_04NIHEBCM@?5new?$AA@ 0000000180024a34     libvcruntime:undname.obj
 0002:00000a40       ??_C@_07FPCDHGMM@?5delete?$AA@ 0000000180024a40     libvcruntime:undname.obj
 0002:00000a48       ??_C@_01NEMOKFLO@?$DN?$AA@ 0000000180024a48     libvcruntime:undname.obj
 0002:00000a4c       ??_C@_02GPIOPFAK@?$DO?$DO?$AA@ 0000000180024a4c     libvcruntime:undname.obj
 0002:00000a50       ??_C@_02FODMEDOG@?$DM?$DM?$AA@ 0000000180024a50     libvcruntime:undname.obj
 0002:00000a54       ??_C@_01DCLJPIOD@?$CB?$AA@ 0000000180024a54     libvcruntime:undname.obj
 0002:00000a58       ??_C@_02EGOFBIJA@?$DN?$DN?$AA@ 0000000180024a58     libvcruntime:undname.obj
 0002:00000a5c       ??_C@_02FDNJECIE@?$CB?$DN?$AA@ 0000000180024a5c     libvcruntime:undname.obj
 0002:00000a60       ??_C@_02GPECMEKF@?$FL?$FN?$AA@ 0000000180024a60     libvcruntime:undname.obj
 0002:00000a68       ??_C@_08LHJFAFGD@operator?$AA@ 0000000180024a68     libvcruntime:undname.obj
 0002:00000a74       ??_C@_02HBOOOICD@?9?$DO?$AA@ 0000000180024a74     libvcruntime:undname.obj
 0002:00000a78       ??_C@_01NBENCBCI@?$CK?$AA@ 0000000180024a78     libvcruntime:undname.obj
 0002:00000a7c       ??_C@_02ECNGHCIF@?$CL?$CL?$AA@ 0000000180024a7c     libvcruntime:undname.obj
 0002:00000a80       ??_C@_02BAABKJLB@?9?9?$AA@ 0000000180024a80     libvcruntime:undname.obj
 0002:00000a84       ??_C@_01JOAMLHOP@?9?$AA@   0000000180024a84     libvcruntime:undname.obj
 0002:00000a88       ??_C@_01MIFGBAGJ@?$CL?$AA@ 0000000180024a88     libvcruntime:undname.obj
 0002:00000a8c       ??_C@_01HNPIGOCE@?$CG?$AA@ 0000000180024a8c     libvcruntime:undname.obj
 0002:00000a90       ??_C@_03MNHNFDLC@?9?$DO?$CK?$AA@ 0000000180024a90     libvcruntime:undname.obj
 0002:00000a94       ??_C@_01KMDKNFGN@?1?$AA@   0000000180024a94     libvcruntime:undname.obj
 0002:00000a98       ??_C@_01FGNFDNOH@?$CF?$AA@ 0000000180024a98     libvcruntime:undname.obj
 0002:00000a9c       ??_C@_01MNNFJEPP@?$DM?$AA@ 0000000180024a9c     libvcruntime:undname.obj
 0002:00000aa0       ??_C@_02EHCHHCKH@?$DM?$DN?$AA@ 0000000180024aa0     libvcruntime:undname.obj
 0002:00000aa4       ??_C@_01PPODPGHN@?$DO?$AA@ 0000000180024aa4     libvcruntime:undname.obj
 0002:00000aa8       ??_C@_02EEKDKGMJ@?$DO?$DN?$AA@ 0000000180024aa8     libvcruntime:undname.obj
 0002:00000aac       ??_C@_01IHBHIGKO@?0?$AA@   0000000180024aac     libvcruntime:undname.obj
 0002:00000ab0       ??_C@_02HCKGKOFO@?$CI?$CJ?$AA@ 0000000180024ab0     libvcruntime:undname.obj
 0002:00000ab4       ??_C@_01PJKLJHI@?$HO?$AA@  0000000180024ab4     libvcruntime:undname.obj
 0002:00000ab8       ??_C@_01JKBOJNNK@?$FO?$AA@ 0000000180024ab8     libvcruntime:undname.obj
 0002:00000abc       ??_C@_01DNKMNLPK@?$HM?$AA@ 0000000180024abc     libvcruntime:undname.obj
 0002:00000ac0       ??_C@_02PPKAJPJL@?$CG?$CG?$AA@ 0000000180024ac0     libvcruntime:undname.obj
 0002:00000ac4       ??_C@_02NONPIBCD@?$HM?$HM?$AA@ 0000000180024ac4     libvcruntime:undname.obj
 0002:00000ac8       ??_C@_02FPIMKNGF@?$CK?$DN?$AA@ 0000000180024ac8     libvcruntime:undname.obj
 0002:00000acc       ??_C@_02FOEOMHFC@?$CL?$DN?$AA@ 0000000180024acc     libvcruntime:undname.obj
 0002:00000ad0       ??_C@_02FKMDLLOA@?9?$DN?$AA@ 0000000180024ad0     libvcruntime:undname.obj
 0002:00000ad4       ??_C@_02FJEHGPIO@?1?$DN?$AA@ 0000000180024ad4     libvcruntime:undname.obj
 0002:00000ad8       ??_C@_02FENAOKFI@?$CF?$DN?$AA@ 0000000180024ad8     libvcruntime:undname.obj
 0002:00000adc       ??_C@_03IKFCCPFF@?$DO?$DO?$DN?$AA@ 0000000180024adc     libvcruntime:undname.obj
 0002:00000ae0       ??_C@_03CDNPDDLA@?$DM?$DM?$DN?$AA@ 0000000180024ae0     libvcruntime:undname.obj
 0002:00000ae4       ??_C@_02FGJGFEAB@?$CG?$DN?$AA@ 0000000180024ae4     libvcruntime:undname.obj
 0002:00000ae8       ??_C@_02DHLNPPGH@?$HM?$DN?$AA@ 0000000180024ae8     libvcruntime:undname.obj
 0002:00000aec       ??_C@_02MHEGNOJ@?$FO?$DN?$AA@ 0000000180024aec     libvcruntime:undname.obj
 0002:00000af0       ??_C@_09IFPLHPGF@?$GAvftable?8?$AA@ 0000000180024af0     libvcruntime:undname.obj
 0002:00000b00       ??_C@_09BLBHBJP@?$GAvbtable?8?$AA@ 0000000180024b00     libvcruntime:undname.obj
 0002:00000b10       ??_C@_07FEEIOKP@?$GAvcall?8?$AA@ 0000000180024b10     libvcruntime:undname.obj
 0002:00000b18       ??_C@_08LLFFHHDJ@?$GAtypeof?8?$AA@ 0000000180024b18     libvcruntime:undname.obj
 0002:00000b28       ??_C@_0BF@KDPPACIK@?$GAlocal?5static?5guard?8?$AA@ 0000000180024b28     libvcruntime:undname.obj
 0002:00000b40       ??_C@_08OBABFOLI@?$GAstring?8?$AA@ 0000000180024b40     libvcruntime:undname.obj
 0002:00000b50       ??_C@_0BD@JDLKDPAB@?$GAvbase?5destructor?8?$AA@ 0000000180024b50     libvcruntime:undname.obj
 0002:00000b68       ??_C@_0BN@DEGPLNFK@?$GAvector?5deleting?5destructor?8?$AA@ 0000000180024b68     libvcruntime:undname.obj
 0002:00000b88       ??_C@_0BO@OBMKPJIG@?$GAdefault?5constructor?5closure?8?$AA@ 0000000180024b88     libvcruntime:undname.obj
 0002:00000ba8       ??_C@_0BN@IMDCHIKM@?$GAscalar?5deleting?5destructor?8?$AA@ 0000000180024ba8     libvcruntime:undname.obj
 0002:00000bc8       ??_C@_0BO@PFGOCPJJ@?$GAvector?5constructor?5iterator?8?$AA@ 0000000180024bc8     libvcruntime:undname.obj
 0002:00000be8       ??_C@_0BN@LFPFMEDL@?$GAvector?5destructor?5iterator?8?$AA@ 0000000180024be8     libvcruntime:undname.obj
 0002:00000c08       ??_C@_0CE@IKBNEHA@?$GAvector?5vbase?5constructor?5iterat@ 0000000180024c08     libvcruntime:undname.obj
 0002:00000c30       ??_C@_0BL@NILFHHPC@?$GAvirtual?5displacement?5map?8?$AA@ 0000000180024c30     libvcruntime:undname.obj
 0002:00000c50       ??_C@_0CB@JONCMFFK@?$GAeh?5vector?5constructor?5iterator?8@ 0000000180024c50     libvcruntime:undname.obj
 0002:00000c78       ??_C@_0CA@GCEOPDGL@?$GAeh?5vector?5destructor?5iterator?8?$AA@ 0000000180024c78     libvcruntime:undname.obj
 0002:00000c98       ??_C@_0CH@OOJPLCPH@?$GAeh?5vector?5vbase?5constructor?5ite@ 0000000180024c98     libvcruntime:undname.obj
 0002:00000cc0       ??_C@_0BL@LLKPOHJI@?$GAcopy?5constructor?5closure?8?$AA@ 0000000180024cc0     libvcruntime:undname.obj
 0002:00000ce0       ??_C@_0BA@KBCDOMBN@?$GAudt?5returning?8?$AA@ 0000000180024ce0     libvcruntime:undname.obj
 0002:00000cf0       ??_C@_03KLGMFNMG@?$GAEH?$AA@ 0000000180024cf0     libvcruntime:undname.obj
 0002:00000cf4       ??_C@_05KHLCHHI@?$GARTTI?$AA@ 0000000180024cf4     libvcruntime:undname.obj
 0002:00000d00       ??_C@_0BA@KKLDJDLB@?$GAlocal?5vftable?8?$AA@ 0000000180024d00     libvcruntime:undname.obj
 0002:00000d10       ??_C@_0CE@IIHCMGGL@?$GAlocal?5vftable?5constructor?5closu@ 0000000180024d10     libvcruntime:undname.obj
 0002:00000d34       ??_C@_06FHBGPFGH@?5new?$FL?$FN?$AA@ 0000000180024d34     libvcruntime:undname.obj
 0002:00000d40       ??_C@_09LBNFPBCA@?5delete?$FL?$FN?$AA@ 0000000180024d40     libvcruntime:undname.obj
 0002:00000d50       ??_C@_0P@HJKNJFNN@?$GAomni?5callsig?8?$AA@ 0000000180024d50     libvcruntime:undname.obj
 0002:00000d60       ??_C@_0BL@CNOONJFP@?$GAplacement?5delete?5closure?8?$AA@ 0000000180024d60     libvcruntime:undname.obj
 0002:00000d80       ??_C@_0BN@CKNJLHMB@?$GAplacement?5delete?$FL?$FN?5closure?8?$AA@ 0000000180024d80     libvcruntime:undname.obj
 0002:00000da0       ??_C@_0CG@CFDHKGGD@?$GAmanaged?5vector?5constructor?5iter@ 0000000180024da0     libvcruntime:undname.obj
 0002:00000dc8       ??_C@_0CF@IMGKMJNO@?$GAmanaged?5vector?5destructor?5itera@ 0000000180024dc8     libvcruntime:undname.obj
 0002:00000df0       ??_C@_0CG@HLDDJMAG@?$GAeh?5vector?5copy?5constructor?5iter@ 0000000180024df0     libvcruntime:undname.obj
 0002:00000e18       ??_C@_0CM@FCBBDIGB@?$GAeh?5vector?5vbase?5copy?5constructo@ 0000000180024e18     libvcruntime:undname.obj
 0002:00000e48       ??_C@_0BL@CLIPGLGB@?$GAdynamic?5initializer?5for?5?8?$AA@ 0000000180024e48     libvcruntime:undname.obj
 0002:00000e68       ??_C@_0CB@PDBIFEP@?$GAdynamic?5atexit?5destructor?5for?5?8@ 0000000180024e68     libvcruntime:undname.obj
 0002:00000e90       ??_C@_0CD@CGAJBKEJ@?$GAvector?5copy?5constructor?5iterato@ 0000000180024e90     libvcruntime:undname.obj
 0002:00000eb8       ??_C@_0CJ@GJELGAMM@?$GAvector?5vbase?5copy?5constructor?5i@ 0000000180024eb8     libvcruntime:undname.obj
 0002:00000ee8       ??_C@_0CL@FGIJHLCE@?$GAmanaged?5vector?5copy?5constructor@ 0000000180024ee8     libvcruntime:undname.obj
 0002:00000f18       ??_C@_0BM@PMGGMLDN@?$GAlocal?5static?5thread?5guard?8?$AA@ 0000000180024f18     libvcruntime:undname.obj
 0002:00000f38       ??_C@_0N@BDNMDMOL@operator?5?$CC?$CC?5?$AA@ 0000000180024f38     libvcruntime:undname.obj
 0002:00000f48       ??_C@_0BC@DAFEJGAK@?5Type?5Descriptor?8?$AA@ 0000000180024f48     libvcruntime:undname.obj
 0002:00000f60       ??_C@_0BM@LDKODKLH@?5Base?5Class?5Descriptor?5at?5?$CI?$AA@ 0000000180024f60     libvcruntime:undname.obj
 0002:00000f80       ??_C@_0BD@LGICGFMM@?5Base?5Class?5Array?8?$AA@ 0000000180024f80     libvcruntime:undname.obj
 0002:00000f98       ??_C@_0BN@MECKDCOJ@?5Class?5Hierarchy?5Descriptor?8?$AA@ 0000000180024f98     libvcruntime:undname.obj
 0002:00000fb8       ??_C@_0BK@CFCOFLF@?5Complete?5Object?5Locator?8?$AA@ 0000000180024fb8     libvcruntime:undname.obj
 0002:00000fe0       ??_C@_1EK@MBDPDCGA@?$AAM?$AAi?$AAc?$AAr?$AAo?$AAs?$AAo?$AAf?$AAt?$AA?5?$AAV?$AAi?$AAs?$AAu?$AAa?$AAl?$AA?5?$AAC?$AA?$CL?$AA?$CL?$AA?5?$AAR?$AAu?$AAn?$AAt?$AAi?$AAm?$AAe?$AA?5?$AAL?$AAi?$AAb@ 0000000180024fe0     libucrt:assert.obj
 0002:00001030       ??_C@_1FE@LHBLIKM@?$AAA?$AAs?$AAs?$AAe?$AAr?$AAt?$AAi?$AAo?$AAn?$AA?5?$AAf?$AAa?$AAi?$AAl?$AAe?$AAd?$AA?3?$AA?5?$AA?$CF?$AAT?$AAs?$AA?0?$AA?5?$AAf?$AAi?$AAl?$AAe?$AA?5?$AA?$CF?$AAT?$AAs?$AA?0@ 0000000180025030     libucrt:assert.obj
 0002:00001088       ??_C@_1CE@OJBNHDMO@?$AAA?$AAs?$AAs?$AAe?$AAr?$AAt?$AAi?$AAo?$AAn?$AA?5?$AAf?$AAa?$AAi?$AAl?$AAe?$AAd?$AA?$CB?$AA?$AA@ 0000000180025088     libucrt:assert.obj
 0002:000010b0       ??_C@_1BE@PHKBBGE@?$AAP?$AAr?$AAo?$AAg?$AAr?$AAa?$AAm?$AA?3?$AA?5?$AA?$AA@ 00000001800250b0     libucrt:assert.obj
 0002:000010c8       ??_C@_1O@HEMHKNDC@?$AAF?$AAi?$AAl?$AAe?$AA?3?$AA?5?$AA?$AA@ 00000001800250c8     libucrt:assert.obj
 0002:000010d8       ??_C@_1O@KCAFKHJE@?$AAL?$AAi?$AAn?$AAe?$AA?3?$AA?5?$AA?$AA@ 00000001800250d8     libucrt:assert.obj
 0002:000010e8       ??_C@_1BK@PEDCIPMA@?$AAE?$AAx?$AAp?$AAr?$AAe?$AAs?$AAs?$AAi?$AAo?$AAn?$AA?3?$AA?5?$AA?$AA@ 00000001800250e8     libucrt:assert.obj
 0002:00001110       ??_C@_1OA@EGMLFBHJ@?$AAF?$AAo?$AAr?$AA?5?$AAi?$AAn?$AAf?$AAo?$AAr?$AAm?$AAa?$AAt?$AAi?$AAo?$AAn?$AA?5?$AAo?$AAn?$AA?5?$AAh?$AAo?$AAw?$AA?5?$AAy?$AAo?$AAu?$AAr?$AA?5?$AAp?$AAr?$AAo?$AAg@ 0000000180025110     libucrt:assert.obj
 0002:000011f0       ??_C@_1HK@POCJMFGK@?$AA?$CI?$AAP?$AAr?$AAe?$AAs?$AAs?$AA?5?$AAR?$AAe?$AAt?$AAr?$AAy?$AA?5?$AAt?$AAo?$AA?5?$AAd?$AAe?$AAb?$AAu?$AAg?$AA?5?$AAt?$AAh?$AAe?$AA?5?$AAa?$AAp?$AAp?$AAl?$AAi?$AAc@ 00000001800251f0     libucrt:assert.obj
 0002:00001270       ??_C@_17LGKOMLJ@?$AA?4?$AA?4?$AA?4?$AA?$AA@ 0000000180025270     libucrt:assert.obj
 0002:00001278       ??_C@_13LBAGMAIH@?$AA?6?$AA?$AA@ 0000000180025278     libucrt:assert.obj
 0002:0000127c       ??_C@_15IABLJNFO@?$AA?6?$AA?6?$AA?$AA@ 000000018002527c     libucrt:assert.obj
 0002:00001288       ??_C@_1CO@EAEJAADC@?$AA?$DM?$AAp?$AAr?$AAo?$AAg?$AAr?$AAa?$AAm?$AA?5?$AAn?$AAa?$AAm?$AAe?$AA?5?$AAu?$AAn?$AAk?$AAn?$AAo?$AAw?$AAn?$AA?$DO?$AA?$AA@ 0000000180025288     libucrt:assert.obj
 0002:000012c0       __acrt_exception_action_table 00000001800252c0     libucrt:exception_filter.obj
 0002:00001380       __acrt_signal_action_table_count 0000000180025380     libucrt:exception_filter.obj
 0002:00001388       __acrt_signal_action_first_fpe_index 0000000180025388     libucrt:exception_filter.obj
 0002:00001390       __acrt_signal_action_fpe_count 0000000180025390     libucrt:exception_filter.obj
 0002:00001398       ??_C@_1BI@BGOHAHKC@?$AAm?$AAs?$AAc?$AAo?$AAr?$AAe?$AAe?$AA?4?$AAd?$AAl?$AAl?$AA?$AA@ 0000000180025398     libucrt:exit.obj
 0002:000013b0       ??_C@_0P@MIGLKIOC@CorExitProcess?$AA@ 00000001800253b0     libucrt:exit.obj
 0002:000014b0       standard_lookup_table      00000001800254b0     libucrt:output.obj
 0002:0000150c       ??_C@_06OJHGLDPL@?$CInull?$CJ?$AA@ 000000018002550c     libucrt:output.obj
 0002:00001518       ??_C@_1O@CEDCILHN@?$AA?$CI?$AAn?$AAu?$AAl?$AAl?$AA?$CJ?$AA?$AA@ 0000000180025518     libucrt:output.obj
 0002:00001698       ??_C@_02CLFPBFFP@TZ?$AA@   0000000180025698     libucrt:tzset.obj
 0002:000016a0       _days                      00000001800256a0     libucrt:days.obj
 0002:000016d8       _lpdays                    00000001800256d8     libucrt:days.obj
 0002:00001710       __newctype                 0000000180025710     libucrt:ctype.obj
 0002:00001a10       __newclmap                 0000000180025a10     libucrt:ctype.obj
 0002:00001b90       __newcumap                 0000000180025b90     libucrt:ctype.obj
 0002:00001d10       _wctype                    0000000180025d10     libucrt:ctype.obj
 0002:00001f20       __lc_time_c                0000000180025f20     libucrt:nlsdata.obj
 0002:000021e0       ??_C@_08BPBNCDIB@MM?1dd?1yy?$AA@ 00000001800261e0     libucrt:nlsdata.obj
 0002:000021f0       ??_C@_0BE@CKGJFCPC@dddd?0?5MMMM?5dd?0?5yyyy?$AA@ 00000001800261f0     libucrt:nlsdata.obj
 0002:00002208       ??_C@_08JCCMCCIL@HH?3mm?3ss?$AA@ 0000000180026208     libucrt:nlsdata.obj
 0002:00002218       ??_C@_17MBGCMIPB@?$AAS?$AAu?$AAn?$AA?$AA@ 0000000180026218     libucrt:nlsdata.obj
 0002:00002220       ??_C@_17KBOMKBF@?$AAM?$AAo?$AAn?$AA?$AA@ 0000000180026220     libucrt:nlsdata.obj
 0002:00002228       ??_C@_17BMKGEGOJ@?$AAT?$AAu?$AAe?$AA?$AA@ 0000000180026228     libucrt:nlsdata.obj
 0002:00002230       ??_C@_17CJEDCEPE@?$AAW?$AAe?$AAd?$AA?$AA@ 0000000180026230     libucrt:nlsdata.obj
 0002:00002238       ??_C@_17PDPHAADD@?$AAT?$AAh?$AAu?$AA?$AA@ 0000000180026238     libucrt:nlsdata.obj
 0002:00002240       ??_C@_17HFOLPPLP@?$AAF?$AAr?$AAi?$AA?$AA@ 0000000180026240     libucrt:nlsdata.obj
 0002:00002248       ??_C@_17GGIBDPIH@?$AAS?$AAa?$AAt?$AA?$AA@ 0000000180026248     libucrt:nlsdata.obj
 0002:00002250       ??_C@_1O@IHNHDHPB@?$AAS?$AAu?$AAn?$AAd?$AAa?$AAy?$AA?$AA@ 0000000180026250     libucrt:nlsdata.obj
 0002:00002260       ??_C@_1O@MMNBFLIA@?$AAM?$AAo?$AAn?$AAd?$AAa?$AAy?$AA?$AA@ 0000000180026260     libucrt:nlsdata.obj
 0002:00002270       ??_C@_1BA@ENFBFFEK@?$AAT?$AAu?$AAe?$AAs?$AAd?$AAa?$AAy?$AA?$AA@ 0000000180026270     libucrt:nlsdata.obj
 0002:00002280       ??_C@_1BE@EBOGMDOH@?$AAW?$AAe?$AAd?$AAn?$AAe?$AAs?$AAd?$AAa?$AAy?$AA?$AA@ 0000000180026280     libucrt:nlsdata.obj
 0002:00002298       ??_C@_1BC@HHMNLIHE@?$AAT?$AAh?$AAu?$AAr?$AAs?$AAd?$AAa?$AAy?$AA?$AA@ 0000000180026298     libucrt:nlsdata.obj
 0002:000022b0       ??_C@_1O@PDICJHAG@?$AAF?$AAr?$AAi?$AAd?$AAa?$AAy?$AA?$AA@ 00000001800262b0     libucrt:nlsdata.obj
 0002:000022c0       ??_C@_1BC@ENMNNPAJ@?$AAS?$AAa?$AAt?$AAu?$AAr?$AAd?$AAa?$AAy?$AA?$AA@ 00000001800262c0     libucrt:nlsdata.obj
 0002:000022d8       ??_C@_17DKNBKCHM@?$AAJ?$AAa?$AAn?$AA?$AA@ 00000001800262d8     libucrt:nlsdata.obj
 0002:000022e0       ??_C@_17LMDJEKJN@?$AAF?$AAe?$AAb?$AA?$AA@ 00000001800262e0     libucrt:nlsdata.obj
 0002:000022e8       ??_C@_17CKNLEDEC@?$AAM?$AAa?$AAr?$AA?$AA@ 00000001800262e8     libucrt:nlsdata.obj
 0002:000022f0       ??_C@_17LFPOIHDD@?$AAA?$AAp?$AAr?$AA?$AA@ 00000001800262f0     libucrt:nlsdata.obj
 0002:000022f8       ??_C@_17PNNKMEED@?$AAM?$AAa?$AAy?$AA?$AA@ 00000001800262f8     libucrt:nlsdata.obj
 0002:00002300       ??_C@_17KCJGOCPB@?$AAJ?$AAu?$AAn?$AA?$AA@ 0000000180026300     libucrt:nlsdata.obj
 0002:00002308       ??_C@_17IJPCKHK@?$AAJ?$AAu?$AAl?$AA?$AA@ 0000000180026308     libucrt:nlsdata.obj
 0002:00002310       ??_C@_17ICPELBCN@?$AAA?$AAu?$AAg?$AA?$AA@ 0000000180026310     libucrt:nlsdata.obj
 0002:00002318       ??_C@_17HCHCOKMG@?$AAS?$AAe?$AAp?$AA?$AA@ 0000000180026318     libucrt:nlsdata.obj
 0002:00002320       ??_C@_17FNLKOI@?$AAO?$AAc?$AAt?$AA?$AA@ 0000000180026320     libucrt:nlsdata.obj
 0002:00002328       ??_C@_17BBDMLCIG@?$AAN?$AAo?$AAv?$AA?$AA@ 0000000180026328     libucrt:nlsdata.obj
 0002:00002330       ??_C@_17EGKACKIF@?$AAD?$AAe?$AAc?$AA?$AA@ 0000000180026330     libucrt:nlsdata.obj
 0002:00002338       ??_C@_1BA@EFMEIEBA@?$AAJ?$AAa?$AAn?$AAu?$AAa?$AAr?$AAy?$AA?$AA@ 0000000180026338     libucrt:nlsdata.obj
 0002:00002348       ??_C@_1BC@JGDDFFAM@?$AAF?$AAe?$AAb?$AAr?$AAu?$AAa?$AAr?$AAy?$AA?$AA@ 0000000180026348     libucrt:nlsdata.obj
 0002:00002360       ??_C@_1M@IKEENEDF@?$AAM?$AAa?$AAr?$AAc?$AAh?$AA?$AA@ 0000000180026360     libucrt:nlsdata.obj
 0002:00002370       ??_C@_1M@GJNLMHFD@?$AAA?$AAp?$AAr?$AAi?$AAl?$AA?$AA@ 0000000180026370     libucrt:nlsdata.obj
 0002:00002380       ??_C@_19EPFLPGAP@?$AAJ?$AAu?$AAn?$AAe?$AA?$AA@ 0000000180026380     libucrt:nlsdata.obj
 0002:00002390       ??_C@_19BIFMLPCD@?$AAJ?$AAu?$AAl?$AAy?$AA?$AA@ 0000000180026390     libucrt:nlsdata.obj
 0002:000023a0       ??_C@_1O@PAHLKOAC@?$AAA?$AAu?$AAg?$AAu?$AAs?$AAt?$AA?$AA@ 00000001800263a0     libucrt:nlsdata.obj
 0002:000023b0       ??_C@_1BE@DKAAMBJL@?$AAS?$AAe?$AAp?$AAt?$AAe?$AAm?$AAb?$AAe?$AAr?$AA?$AA@ 00000001800263b0     libucrt:nlsdata.obj
 0002:000023c8       ??_C@_1BA@EPANDLNG@?$AAO?$AAc?$AAt?$AAo?$AAb?$AAe?$AAr?$AA?$AA@ 00000001800263c8     libucrt:nlsdata.obj
 0002:000023d8       ??_C@_1BC@BGLIFPF@?$AAN?$AAo?$AAv?$AAe?$AAm?$AAb?$AAe?$AAr?$AA?$AA@ 00000001800263d8     libucrt:nlsdata.obj
 0002:000023f0       ??_C@_1BC@FEMKIFH@?$AAD?$AAe?$AAc?$AAe?$AAm?$AAb?$AAe?$AAr?$AA?$AA@ 00000001800263f0     libucrt:nlsdata.obj
 0002:00002404       ??_C@_15ODEHAHHF@?$AAA?$AAM?$AA?$AA@ 0000000180026404     libucrt:nlsdata.obj
 0002:0000240c       ??_C@_15CLMNNGEL@?$AAP?$AAM?$AA?$AA@ 000000018002640c     libucrt:nlsdata.obj
 0002:00002418       ??_C@_1BC@IEBCMHCM@?$AAM?$AAM?$AA?1?$AAd?$AAd?$AA?1?$AAy?$AAy?$AA?$AA@ 0000000180026418     libucrt:nlsdata.obj
 0002:00002430       ??_C@_1CI@KNAKOEBC@?$AAd?$AAd?$AAd?$AAd?$AA?0?$AA?5?$AAM?$AAM?$AAM?$AAM?$AA?5?$AAd?$AAd?$AA?0?$AA?5?$AAy?$AAy?$AAy?$AAy?$AA?$AA@ 0000000180026430     libucrt:nlsdata.obj
 0002:00002458       ??_C@_1BC@GDGBMEMK@?$AAH?$AAH?$AA?3?$AAm?$AAm?$AA?3?$AAs?$AAs?$AA?$AA@ 0000000180026458     libucrt:nlsdata.obj
 0002:00002470       ??_C@_1M@BMHNFIME@?$AAe?$AAn?$AA?9?$AAU?$AAS?$AA?$AA@ 0000000180026470     libucrt:nlsdata.obj
 0002:00002520       ??_C@_1EG@CNNIPFIM@?$AAa?$AAp?$AAi?$AA?9?$AAm?$AAs?$AA?9?$AAw?$AAi?$AAn?$AA?9?$AAa?$AAp?$AAp?$AAm?$AAo?$AAd?$AAe?$AAl?$AA?9?$AAr?$AAu?$AAn?$AAt?$AAi?$AAm?$AAe?$AA?9?$AAl?$AA1?$AA?9?$AA1@ 0000000180026520     libucrt:winapi_thunks.obj
 0002:00002570       ??_C@_1EA@JGEFHKEI@?$AAa?$AAp?$AAi?$AA?9?$AAm?$AAs?$AA?9?$AAw?$AAi?$AAn?$AA?9?$AAc?$AAo?$AAr?$AAe?$AA?9?$AAd?$AAa?$AAt?$AAe?$AAt?$AAi?$AAm?$AAe?$AA?9?$AAl?$AA1?$AA?9?$AA1?$AA?9?$AA1?$AA?$AA@ 0000000180026570     libucrt:winapi_thunks.obj
 0002:000025b0       ??_C@_1DI@GCIAAENM@?$AAa?$AAp?$AAi?$AA?9?$AAm?$AAs?$AA?9?$AAw?$AAi?$AAn?$AA?9?$AAc?$AAo?$AAr?$AAe?$AA?9?$AAf?$AAi?$AAl?$AAe?$AA?9?$AAl?$AA2?$AA?9?$AA1?$AA?9?$AA1?$AA?$AA@ 00000001800265b0     libucrt:winapi_thunks.obj
 0002:000025f0       ??_C@_1EI@MPIAOHOC@?$AAa?$AAp?$AAi?$AA?9?$AAm?$AAs?$AA?9?$AAw?$AAi?$AAn?$AA?9?$AAc?$AAo?$AAr?$AAe?$AA?9?$AAl?$AAo?$AAc?$AAa?$AAl?$AAi?$AAz?$AAa?$AAt?$AAi?$AAo?$AAn?$AA?9?$AAl?$AA1?$AA?9@ 00000001800265f0     libucrt:winapi_thunks.obj
 0002:00002640       ??_C@_1FK@FPHCKFIE@?$AAa?$AAp?$AAi?$AA?9?$AAm?$AAs?$AA?9?$AAw?$AAi?$AAn?$AA?9?$AAc?$AAo?$AAr?$AAe?$AA?9?$AAl?$AAo?$AAc?$AAa?$AAl?$AAi?$AAz?$AAa?$AAt?$AAi?$AAo?$AAn?$AA?9?$AAo?$AAb?$AAs@ 0000000180026640     libucrt:winapi_thunks.obj
 0002:000026a0       ??_C@_1EM@DILCGIIO@?$AAa?$AAp?$AAi?$AA?9?$AAm?$AAs?$AA?9?$AAw?$AAi?$AAn?$AA?9?$AAc?$AAo?$AAr?$AAe?$AA?9?$AAp?$AAr?$AAo?$AAc?$AAe?$AAs?$AAs?$AAt?$AAh?$AAr?$AAe?$AAa?$AAd?$AAs?$AA?9?$AAl@ 00000001800266a0     libucrt:winapi_thunks.obj
 0002:000026f0       ??_C@_1DM@LNCGDDPN@?$AAa?$AAp?$AAi?$AA?9?$AAm?$AAs?$AA?9?$AAw?$AAi?$AAn?$AA?9?$AAc?$AAo?$AAr?$AAe?$AA?9?$AAs?$AAt?$AAr?$AAi?$AAn?$AAg?$AA?9?$AAl?$AA1?$AA?9?$AA1?$AA?9?$AA0?$AA?$AA@ 00000001800266f0     libucrt:winapi_thunks.obj
 0002:00002730       ??_C@_1DO@FPAPJEMD@?$AAa?$AAp?$AAi?$AA?9?$AAm?$AAs?$AA?9?$AAw?$AAi?$AAn?$AA?9?$AAc?$AAo?$AAr?$AAe?$AA?9?$AAs?$AAy?$AAs?$AAi?$AAn?$AAf?$AAo?$AA?9?$AAl?$AA1?$AA?9?$AA2?$AA?9?$AA1?$AA?$AA@ 0000000180026730     libucrt:winapi_thunks.obj
 0002:00002770       ??_C@_1DK@NDHNAHIO@?$AAa?$AAp?$AAi?$AA?9?$AAm?$AAs?$AA?9?$AAw?$AAi?$AAn?$AA?9?$AAc?$AAo?$AAr?$AAe?$AA?9?$AAw?$AAi?$AAn?$AAr?$AAt?$AA?9?$AAl?$AA1?$AA?9?$AA1?$AA?9?$AA0?$AA?$AA@ 0000000180026770     libucrt:winapi_thunks.obj
 0002:000027b0       ??_C@_1DM@KGHDGBCM@?$AAa?$AAp?$AAi?$AA?9?$AAm?$AAs?$AA?9?$AAw?$AAi?$AAn?$AA?9?$AAc?$AAo?$AAr?$AAe?$AA?9?$AAx?$AAs?$AAt?$AAa?$AAt?$AAe?$AA?9?$AAl?$AA2?$AA?9?$AA1?$AA?9?$AA0?$AA?$AA@ 00000001800267b0     libucrt:winapi_thunks.obj
 0002:000027f0       ??_C@_1EO@IJIOEFOH@?$AAa?$AAp?$AAi?$AA?9?$AAm?$AAs?$AA?9?$AAw?$AAi?$AAn?$AA?9?$AAr?$AAt?$AAc?$AAo?$AAr?$AAe?$AA?9?$AAn?$AAt?$AAu?$AAs?$AAe?$AAr?$AA?9?$AAw?$AAi?$AAn?$AAd?$AAo?$AAw?$AA?9@ 00000001800267f0     libucrt:winapi_thunks.obj
 0002:00002840       ??_C@_1FG@HHGEKANL@?$AAa?$AAp?$AAi?$AA?9?$AAm?$AAs?$AA?9?$AAw?$AAi?$AAn?$AA?9?$AAs?$AAe?$AAc?$AAu?$AAr?$AAi?$AAt?$AAy?$AA?9?$AAs?$AAy?$AAs?$AAt?$AAe?$AAm?$AAf?$AAu?$AAn?$AAc?$AAt?$AAi@ 0000000180026840     libucrt:winapi_thunks.obj
 0002:000028a0       ??_C@_1FG@NCKKOLKO@?$AAe?$AAx?$AAt?$AA?9?$AAm?$AAs?$AA?9?$AAw?$AAi?$AAn?$AA?9?$AAk?$AAe?$AAr?$AAn?$AAe?$AAl?$AA3?$AA2?$AA?9?$AAp?$AAa?$AAc?$AAk?$AAa?$AAg?$AAe?$AA?9?$AAc?$AAu?$AAr?$AAr@ 00000001800268a0     libucrt:winapi_thunks.obj
 0002:00002900       ??_C@_1EG@DBIOJECG@?$AAe?$AAx?$AAt?$AA?9?$AAm?$AAs?$AA?9?$AAw?$AAi?$AAn?$AA?9?$AAn?$AAt?$AAu?$AAs?$AAe?$AAr?$AA?9?$AAd?$AAi?$AAa?$AAl?$AAo?$AAg?$AAb?$AAo?$AAx?$AA?9?$AAl?$AA1?$AA?9?$AA1@ 0000000180026900     libucrt:winapi_thunks.obj
 0002:00002950       ??_C@_1EO@FIHMJCLF@?$AAe?$AAx?$AAt?$AA?9?$AAm?$AAs?$AA?9?$AAw?$AAi?$AAn?$AA?9?$AAn?$AAt?$AAu?$AAs?$AAe?$AAr?$AA?9?$AAw?$AAi?$AAn?$AAd?$AAo?$AAw?$AAs?$AAt?$AAa?$AAt?$AAi?$AAo?$AAn?$AA?9@ 0000000180026950     libucrt:winapi_thunks.obj
 0002:000029a0       ??_C@_1O@BCCLBEOE@?$AAu?$AAs?$AAe?$AAr?$AA3?$AA2?$AA?$AA@ 00000001800269a0     libucrt:winapi_thunks.obj
 0002:000029b8       ??_C@_0BA@IHGNDAEB@CompareStringEx?$AA@ 00000001800269b8     libucrt:winapi_thunks.obj
 0002:000029f0       ??_C@_0BA@HNOPNCHB@GetActiveWindow?$AA@ 00000001800269f0     libucrt:winapi_thunks.obj
 0002:00002a08       ??_C@_0BE@JOGNEJCI@GetCurrentPackageId?$AA@ 0000000180026a08     libucrt:winapi_thunks.obj
 0002:00002a28       ??_C@_0BD@HHGDFDBJ@GetLastActivePopup?$AA@ 0000000180026a28     libucrt:winapi_thunks.obj
 0002:00002a48       ??_C@_0BI@DFKBFLJE@GetProcessWindowStation?$AA@ 0000000180026a48     libucrt:winapi_thunks.obj
 0002:00002a68       ??_C@_0BK@DEKFELLI@GetUserObjectInformationW?$AA@ 0000000180026a68     libucrt:winapi_thunks.obj
 0002:00002a98       ??_C@_0O@KKBNKAPF@LCMapStringEx?$AA@ 0000000180026a98     libucrt:winapi_thunks.obj
 0002:00002ab0       ??_C@_0BB@HBDEELFH@LocaleNameToLCID?$AA@ 0000000180026ab0     libucrt:winapi_thunks.obj
 0002:00002ad0       ??_C@_0M@CHKKJDAI@MessageBoxA?$AA@ 0000000180026ad0     libucrt:winapi_thunks.obj
 0002:00002ae8       ??_C@_0M@DLDCCGNP@MessageBoxW?$AA@ 0000000180026ae8     libucrt:winapi_thunks.obj
 0002:00002b18       ??_C@_1M@HPNHIDJI@?$AAj?$AAa?$AA?9?$AAJ?$AAP?$AA?$AA@ 0000000180026b18     libucrt:mbctype.obj
 0002:00002b28       ??_C@_1M@BIBDDEMK@?$AAz?$AAh?$AA?9?$AAC?$AAN?$AA?$AA@ 0000000180026b28     libucrt:mbctype.obj
 0002:00002b38       ??_C@_1M@JLOOOEGK@?$AAk?$AAo?$AA?9?$AAK?$AAR?$AA?$AA@ 0000000180026b38     libucrt:mbctype.obj
 0002:00002b48       ??_C@_1M@CLNBBOPM@?$AAz?$AAh?$AA?9?$AAT?$AAW?$AA?$AA@ 0000000180026b48     libucrt:mbctype.obj
 0002:00002b54       ??_C@_03OEIAHPBN@INF?$AA@  0000000180026b54     libucrt:cvt.obj
 0002:00002b58       ??_C@_03OJHLLCGB@inf?$AA@  0000000180026b58     libucrt:cvt.obj
 0002:00002b5c       ??_C@_03LKNCIKJB@NAN?$AA@  0000000180026b5c     libucrt:cvt.obj
 0002:00002b60       ??_C@_03LHCJEHON@nan?$AA@  0000000180026b60     libucrt:cvt.obj
 0002:00002b68       ??_C@_09OFJJIMPC@NAN?$CISNAN?$CJ?$AA@ 0000000180026b68     libucrt:cvt.obj
 0002:00002b78       ??_C@_09IPFBKMDL@nan?$CIsnan?$CJ?$AA@ 0000000180026b78     libucrt:cvt.obj
 0002:00002b88       ??_C@_08IKHNHAJ@NAN?$CIIND?$CJ?$AA@ 0000000180026b88     libucrt:cvt.obj
 0002:00002b98       ??_C@_08OFCDMILK@nan?$CIind?$CJ?$AA@ 0000000180026b98     libucrt:cvt.obj
 0002:00002ba4       ??_C@_05KLBDPFGC@e?$CL000?$AA@ 0000000180026ba4     libucrt:cvt.obj
 0002:00002bac       ??_C@_15PJPFLCCM@?$AAu?$AAk?$AA?$AA@ 0000000180026bac     libucrt:get_qualified_locale.obj
 0002:00003a00       ??_C@_15EMKDOKLE@?$AAa?$AAr?$AA?$AA@ 0000000180027a00     libucrt:lcidtoname_downlevel.obj
 0002:00003a08       ??_C@_15KNPADPLH@?$AAb?$AAg?$AA?$AA@ 0000000180027a08     libucrt:lcidtoname_downlevel.obj
 0002:00003a10       ??_C@_15EDMHLDMO@?$AAc?$AAa?$AA?$AA@ 0000000180027a10     libucrt:lcidtoname_downlevel.obj
 0002:00003a18       ??_C@_1O@BPEAJADD@?$AAz?$AAh?$AA?9?$AAC?$AAH?$AAS?$AA?$AA@ 0000000180027a18     libucrt:lcidtoname_downlevel.obj
 0002:00003a28       ??_C@_15LJNHCMNK@?$AAc?$AAs?$AA?$AA@ 0000000180027a28     libucrt:lcidtoname_downlevel.obj
 0002:00003a30       ??_C@_15FOMCIDHG@?$AAd?$AAa?$AA?$AA@ 0000000180027a30     libucrt:lcidtoname_downlevel.obj
 0002:00003a38       ??_C@_15NBKABECB@?$AAd?$AAe?$AA?$AA@ 0000000180027a38     libucrt:lcidtoname_downlevel.obj
 0002:00003a40       ??_C@_15GHPEIIAO@?$AAe?$AAl?$AA?$AA@ 0000000180027a40     libucrt:lcidtoname_downlevel.obj
 0002:00003a48       ??_C@_15MNPNEAIF@?$AAe?$AAn?$AA?$AA@ 0000000180027a48     libucrt:lcidtoname_downlevel.obj
 0002:00003a50       ??_C@_15GPIOMPMH@?$AAe?$AAs?$AA?$AA@ 0000000180027a50     libucrt:lcidtoname_downlevel.obj
 0002:00003a58       ??_C@_15NGLOAKJC@?$AAf?$AAi?$AA?$AA@ 0000000180027a58     libucrt:lcidtoname_downlevel.obj
 0002:00003a60       ??_C@_15FBKGNKAM@?$AAf?$AAr?$AA?$AA@ 0000000180027a60     libucrt:lcidtoname_downlevel.obj
 0002:00003a68       ??_C@_15KGGCNEFK@?$AAh?$AAe?$AA?$AA@ 0000000180027a68     libucrt:lcidtoname_downlevel.obj
 0002:00003a70       ??_C@_15PGHLIDMF@?$AAh?$AAu?$AA?$AA@ 0000000180027a70     libucrt:lcidtoname_downlevel.obj
 0002:00003a78       ??_C@_15BIEMAPLM@?$AAi?$AAs?$AA?$AA@ 0000000180027a78     libucrt:lcidtoname_downlevel.obj
 0002:00003a80       ??_C@_15IFJLDHAF@?$AAi?$AAt?$AA?$AA@ 0000000180027a80     libucrt:lcidtoname_downlevel.obj
 0002:00003a88       ??_C@_15GEMIOCAG@?$AAj?$AAa?$AA?$AA@ 0000000180027a88     libucrt:lcidtoname_downlevel.obj
 0002:00003a90       ??_C@_15EPELEGJA@?$AAk?$AAo?$AA?$AA@ 0000000180027a90     libucrt:lcidtoname_downlevel.obj
 0002:00003a98       ??_C@_15NDDHIMN@?$AAn?$AAl?$AA?$AA@ 0000000180027a98     libucrt:lcidtoname_downlevel.obj
 0002:00003aa0       ??_C@_15BPIGNHCD@?$AAn?$AAo?$AA?$AA@ 0000000180027aa0     libucrt:lcidtoname_downlevel.obj
 0002:00003aa8       ??_C@_15DEOPBLCG@?$AAp?$AAl?$AA?$AA@ 0000000180027aa8     libucrt:lcidtoname_downlevel.obj
 0002:00003ab0       ??_C@_15KBECGEFG@?$AAp?$AAt?$AA?$AA@ 0000000180027ab0     libucrt:lcidtoname_downlevel.obj
 0002:00003ab8       ??_C@_15GLJCBFMD@?$AAr?$AAo?$AA?$AA@ 0000000180027ab8     libucrt:lcidtoname_downlevel.obj
 0002:00003ac0       ??_C@_15FEDGKCDI@?$AAr?$AAu?$AA?$AA@ 0000000180027ac0     libucrt:lcidtoname_downlevel.obj
 0002:00003ac8       ??_C@_15GLKMLLHM@?$AAh?$AAr?$AA?$AA@ 0000000180027ac8     libucrt:lcidtoname_downlevel.obj
 0002:00003ad0       ??_C@_15CPKMFBDB@?$AAs?$AAk?$AA?$AA@ 0000000180027ad0     libucrt:lcidtoname_downlevel.obj
 0002:00003ad8       ??_C@_15BAAIOGMK@?$AAs?$AAq?$AA?$AA@ 0000000180027ad8     libucrt:lcidtoname_downlevel.obj
 0002:00003ae0       ??_C@_15INNPNOHD@?$AAs?$AAv?$AA?$AA@ 0000000180027ae0     libucrt:lcidtoname_downlevel.obj
 0002:00003ae8       ??_C@_15CABMMOGH@?$AAt?$AAh?$AA?$AA@ 0000000180027ae8     libucrt:lcidtoname_downlevel.obj
 0002:00003af0       ??_C@_15BPLIHJJM@?$AAt?$AAr?$AA?$AA@ 0000000180027af0     libucrt:lcidtoname_downlevel.obj
 0002:00003af8       ??_C@_15NEOEKKDJ@?$AAu?$AAr?$AA?$AA@ 0000000180027af8     libucrt:lcidtoname_downlevel.obj
 0002:00003b00       ??_C@_15NFICGAJK@?$AAi?$AAd?$AA?$AA@ 0000000180027b00     libucrt:lcidtoname_downlevel.obj
 0002:00003b08       ??_C@_15HPJPHDM@?$AAb?$AAe?$AA?$AA@ 0000000180027b08     libucrt:lcidtoname_downlevel.obj
 0002:00003b10       ??_C@_15LCHLGJII@?$AAs?$AAl?$AA?$AA@ 0000000180027b10     libucrt:lcidtoname_downlevel.obj
 0002:00003b18       ??_C@_15PCFJPHHO@?$AAe?$AAt?$AA?$AA@ 0000000180027b18     libucrt:lcidtoname_downlevel.obj
 0002:00003b20       ??_C@_15HPFPGODN@?$AAl?$AAv?$AA?$AA@ 0000000180027b20     libucrt:lcidtoname_downlevel.obj
 0002:00003b28       ??_C@_15NFFGKGLG@?$AAl?$AAt?$AA?$AA@ 0000000180027b28     libucrt:lcidtoname_downlevel.obj
 0002:00003b30       ??_C@_15BDAKCCHN@?$AAf?$AAa?$AA?$AA@ 0000000180027b30     libucrt:lcidtoname_downlevel.obj
 0002:00003b38       ??_C@_15NFGIAIAJ@?$AAv?$AAi?$AA?$AA@ 0000000180027b38     libucrt:lcidtoname_downlevel.obj
 0002:00003b40       ??_C@_15LMKNDMHN@?$AAh?$AAy?$AA?$AA@ 0000000180027b40     libucrt:lcidtoname_downlevel.obj
 0002:00003b48       ??_C@_15IJBHMCFL@?$AAa?$AAz?$AA?$AA@ 0000000180027b48     libucrt:lcidtoname_downlevel.obj
 0002:00003b50       ??_C@_15EKOFJABL@?$AAe?$AAu?$AA?$AA@ 0000000180027b50     libucrt:lcidtoname_downlevel.obj
 0002:00003b58       ??_C@_15BGHADCNK@?$AAm?$AAk?$AA?$AA@ 0000000180027b58     libucrt:lcidtoname_downlevel.obj
 0002:00003b60       ??_C@_15JDNICKHM@?$AAa?$AAf?$AA?$AA@ 0000000180027b60     libucrt:lcidtoname_downlevel.obj
 0002:00003b68       ??_C@_15KPJEDBKD@?$AAk?$AAa?$AA?$AA@ 0000000180027b68     libucrt:lcidtoname_downlevel.obj
 0002:00003b70       ??_C@_15PDNFFFEO@?$AAf?$AAo?$AA?$AA@ 0000000180027b70     libucrt:lcidtoname_downlevel.obj
 0002:00003b78       ??_C@_15OMLEGLOC@?$AAh?$AAi?$AA?$AA@ 0000000180027b78     libucrt:lcidtoname_downlevel.obj
 0002:00003b80       ??_C@_15IDNNENKK@?$AAm?$AAs?$AA?$AA@ 0000000180027b80     libucrt:lcidtoname_downlevel.obj
 0002:00003b88       ??_C@_15MACJNBMH@?$AAk?$AAk?$AA?$AA@ 0000000180027b88     libucrt:lcidtoname_downlevel.obj
 0002:00003b90       ??_C@_15DKDJEOND@?$AAk?$AAy?$AA?$AA@ 0000000180027b90     libucrt:lcidtoname_downlevel.obj
 0002:00003b98       ??_C@_15DFGDLJBG@?$AAs?$AAw?$AA?$AA@ 0000000180027b98     libucrt:lcidtoname_downlevel.obj
 0002:00003ba0       ??_C@_15BBFAICNG@?$AAu?$AAz?$AA?$AA@ 0000000180027ba0     libucrt:lcidtoname_downlevel.obj
 0002:00003ba8       ??_C@_15DKNDCGEA@?$AAt?$AAt?$AA?$AA@ 0000000180027ba8     libucrt:lcidtoname_downlevel.obj
 0002:00003bb0       ??_C@_15MGIFMDPL@?$AAp?$AAa?$AA?$AA@ 0000000180027bb0     libucrt:lcidtoname_downlevel.obj
 0002:00003bb8       ??_C@_15HCNDBBA@?$AAg?$AAu?$AA?$AA@ 0000000180027bb8     libucrt:lcidtoname_downlevel.obj
 0002:00003bc0       ??_C@_15FNBEIBON@?$AAt?$AAa?$AA?$AA@ 0000000180027bc0     libucrt:lcidtoname_downlevel.obj
 0002:00003bc8       ??_C@_15NCHGBGLK@?$AAt?$AAe?$AA?$AA@ 0000000180027bc8     libucrt:lcidtoname_downlevel.obj
 0002:00003bd0       ??_C@_15PHPHCBPF@?$AAk?$AAn?$AA?$AA@ 0000000180027bd0     libucrt:lcidtoname_downlevel.obj
 0002:00003bd8       ??_C@_15DLGBCKMP@?$AAm?$AAr?$AA?$AA@ 0000000180027bd8     libucrt:lcidtoname_downlevel.obj
 0002:00003be0       ??_C@_15EABBLBFF@?$AAs?$AAa?$AA?$AA@ 0000000180027be0     libucrt:lcidtoname_downlevel.obj
 0002:00003be8       ??_C@_15CBKOMCOI@?$AAm?$AAn?$AA?$AA@ 0000000180027be8     libucrt:lcidtoname_downlevel.obj
 0002:00003bf0       ??_C@_15CKDMCJAF@?$AAg?$AAl?$AA?$AA@ 0000000180027bf0     libucrt:lcidtoname_downlevel.obj
 0002:00003bf8       ??_C@_17CNJFBPG@?$AAk?$AAo?$AAk?$AA?$AA@ 0000000180027bf8     libucrt:lcidtoname_downlevel.obj
 0002:00003c00       ??_C@_17FFBJICPL@?$AAs?$AAy?$AAr?$AA?$AA@ 0000000180027c00     libucrt:lcidtoname_downlevel.obj
 0002:00003c08       ??_C@_17KPNDCPAF@?$AAd?$AAi?$AAv?$AA?$AA@ 0000000180027c08     libucrt:lcidtoname_downlevel.obj
 0002:00003c10       ??_C@_11LOCGONAA@?$AA?$AA@ 0000000180027c10     libucrt:lcidtoname_downlevel.obj
 0002:00003c18       ??_C@_1M@OKAHONE@?$AAa?$AAr?$AA?9?$AAS?$AAA?$AA?$AA@ 0000000180027c18     libucrt:lcidtoname_downlevel.obj
 0002:00003c28       ??_C@_1M@FFFIGIGK@?$AAb?$AAg?$AA?9?$AAB?$AAG?$AA?$AA@ 0000000180027c28     libucrt:lcidtoname_downlevel.obj
 0002:00003c38       ??_C@_1M@BJNKEDC@?$AAc?$AAa?$AA?9?$AAE?$AAS?$AA?$AA@ 0000000180027c38     libucrt:lcidtoname_downlevel.obj
 0002:00003c48       ??_C@_1M@IJJHFJHA@?$AAc?$AAs?$AA?9?$AAC?$AAZ?$AA?$AA@ 0000000180027c48     libucrt:lcidtoname_downlevel.obj
 0002:00003c58       ??_C@_1M@CLPEOBGI@?$AAd?$AAa?$AA?9?$AAD?$AAK?$AA?$AA@ 0000000180027c58     libucrt:lcidtoname_downlevel.obj
 0002:00003c68       ??_C@_1M@MCMADGCB@?$AAd?$AAe?$AA?9?$AAD?$AAE?$AA?$AA@ 0000000180027c68     libucrt:lcidtoname_downlevel.obj
 0002:00003c78       ??_C@_1M@OOCKEMAM@?$AAe?$AAl?$AA?9?$AAG?$AAR?$AA?$AA@ 0000000180027c78     libucrt:lcidtoname_downlevel.obj
 0002:00003c88       ??_C@_1M@DDNJFGID@?$AAf?$AAi?$AA?9?$AAF?$AAI?$AA?$AA@ 0000000180027c88     libucrt:lcidtoname_downlevel.obj
 0002:00003c98       ??_C@_1M@GLIPPMAC@?$AAf?$AAr?$AA?9?$AAF?$AAR?$AA?$AA@ 0000000180027c98     libucrt:lcidtoname_downlevel.obj
 0002:00003ca8       ??_C@_1M@GFMCHPE@?$AAh?$AAe?$AA?9?$AAI?$AAL?$AA?$AA@ 0000000180027ca8     libucrt:lcidtoname_downlevel.obj
 0002:00003cb8       ??_C@_1M@MHLPGNKM@?$AAh?$AAu?$AA?9?$AAH?$AAU?$AA?$AA@ 0000000180027cb8     libucrt:lcidtoname_downlevel.obj
 0002:00003cc8       ??_C@_1M@LPDDNNPN@?$AAi?$AAs?$AA?9?$AAI?$AAS?$AA?$AA@ 0000000180027cc8     libucrt:lcidtoname_downlevel.obj
 0002:00003cd8       ??_C@_1M@MADIPODN@?$AAi?$AAt?$AA?9?$AAI?$AAT?$AA?$AA@ 0000000180027cd8     libucrt:lcidtoname_downlevel.obj
 0002:00003ce8       ??_C@_1M@IHBJJGG@?$AAn?$AAl?$AA?9?$AAN?$AAL?$AA?$AA@ 0000000180027ce8     libucrt:lcidtoname_downlevel.obj
 0002:00003cf8       ??_C@_1M@EANAGDL@?$AAn?$AAb?$AA?9?$AAN?$AAO?$AA?$AA@ 0000000180027cf8     libucrt:lcidtoname_downlevel.obj
 0002:00003d08       ??_C@_1M@NEIEMEGP@?$AAp?$AAl?$AA?9?$AAP?$AAL?$AA?$AA@ 0000000180027d08     libucrt:lcidtoname_downlevel.obj
 0002:00003d18       ??_C@_1M@BOCFIGEP@?$AAp?$AAt?$AA?9?$AAB?$AAR?$AA?$AA@ 0000000180027d18     libucrt:lcidtoname_downlevel.obj
 0002:00003d28       ??_C@_1M@IMPFOPBG@?$AAr?$AAo?$AA?9?$AAR?$AAO?$AA?$AA@ 0000000180027d28     libucrt:lcidtoname_downlevel.obj
 0002:00003d38       ??_C@_1M@IDNNEJMM@?$AAr?$AAu?$AA?9?$AAR?$AAU?$AA?$AA@ 0000000180027d38     libucrt:lcidtoname_downlevel.obj
 0002:00003d48       ??_C@_1M@LILEEOGM@?$AAh?$AAr?$AA?9?$AAH?$AAR?$AA?$AA@ 0000000180027d48     libucrt:lcidtoname_downlevel.obj
 0002:00003d58       ??_C@_1M@FKIFEHPB@?$AAs?$AAk?$AA?9?$AAS?$AAK?$AA?$AA@ 0000000180027d58     libucrt:lcidtoname_downlevel.obj
 0002:00003d68       ??_C@_1M@LJMAMNPJ@?$AAs?$AAq?$AA?9?$AAA?$AAL?$AA?$AA@ 0000000180027d68     libucrt:lcidtoname_downlevel.obj
 0002:00003d78       ??_C@_1M@GIAKDKJK@?$AAs?$AAv?$AA?9?$AAS?$AAE?$AA?$AA@ 0000000180027d78     libucrt:lcidtoname_downlevel.obj
 0002:00003d88       ??_C@_1M@MKJKIKCL@?$AAt?$AAh?$AA?9?$AAT?$AAH?$AA?$AA@ 0000000180027d88     libucrt:lcidtoname_downlevel.obj
 0002:00003d98       ??_C@_1M@MFLCCMPB@?$AAt?$AAr?$AA?9?$AAT?$AAR?$AA?$AA@ 0000000180027d98     libucrt:lcidtoname_downlevel.obj
 0002:00003da8       ??_C@_1M@OIJHDKJN@?$AAu?$AAr?$AA?9?$AAP?$AAK?$AA?$AA@ 0000000180027da8     libucrt:lcidtoname_downlevel.obj
 0002:00003db8       ??_C@_1M@LHIPCIEK@?$AAi?$AAd?$AA?9?$AAI?$AAD?$AA?$AA@ 0000000180027db8     libucrt:lcidtoname_downlevel.obj
 0002:00003dc8       ??_C@_1M@MFMOBGI@?$AAu?$AAk?$AA?9?$AAU?$AAA?$AA?$AA@ 0000000180027dc8     libucrt:lcidtoname_downlevel.obj
 0002:00003dd8       ??_C@_1M@OBGLJIPL@?$AAb?$AAe?$AA?9?$AAB?$AAY?$AA?$AA@ 0000000180027dd8     libucrt:lcidtoname_downlevel.obj
 0002:00003de8       ??_C@_1M@BCFAJEAD@?$AAs?$AAl?$AA?9?$AAS?$AAI?$AA?$AA@ 0000000180027de8     libucrt:lcidtoname_downlevel.obj
 0002:00003df8       ??_C@_1M@FKFFEDDN@?$AAe?$AAt?$AA?9?$AAE?$AAE?$AA?$AA@ 0000000180027df8     libucrt:lcidtoname_downlevel.obj
 0002:00003e08       ??_C@_1M@KGKKAACI@?$AAl?$AAv?$AA?9?$AAL?$AAV?$AA?$AA@ 0000000180027e08     libucrt:lcidtoname_downlevel.obj
 0002:00003e18       ??_C@_1M@IFGBIJO@?$AAl?$AAt?$AA?9?$AAL?$AAT?$AA?$AA@ 0000000180027e18     libucrt:lcidtoname_downlevel.obj
 0002:00003e28       ??_C@_1M@FGEAHEDM@?$AAf?$AAa?$AA?9?$AAI?$AAR?$AA?$AA@ 0000000180027e28     libucrt:lcidtoname_downlevel.obj
 0002:00003e38       ??_C@_1M@KBMAIBFN@?$AAv?$AAi?$AA?9?$AAV?$AAN?$AA?$AA@ 0000000180027e38     libucrt:lcidtoname_downlevel.obj
 0002:00003e48       ??_C@_1M@GPCBKDJK@?$AAh?$AAy?$AA?9?$AAA?$AAM?$AA?$AA@ 0000000180027e48     libucrt:lcidtoname_downlevel.obj
 0002:00003e58       ??_C@_1BG@BECMDDJB@?$AAa?$AAz?$AA?9?$AAA?$AAZ?$AA?9?$AAL?$AAa?$AAt?$AAn?$AA?$AA@ 0000000180027e58     libucrt:lcidtoname_downlevel.obj
 0002:00003e70       ??_C@_1M@MAOFCAEA@?$AAe?$AAu?$AA?9?$AAE?$AAS?$AA?$AA@ 0000000180027e70     libucrt:lcidtoname_downlevel.obj
 0002:00003e80       ??_C@_1M@IGHABKPI@?$AAm?$AAk?$AA?9?$AAM?$AAK?$AA?$AA@ 0000000180027e80     libucrt:lcidtoname_downlevel.obj
 0002:00003e90       ??_C@_1M@IAIGNEJG@?$AAt?$AAn?$AA?9?$AAZ?$AAA?$AA?$AA@ 0000000180027e90     libucrt:lcidtoname_downlevel.obj
 0002:00003ea0       ??_C@_1M@IIJCOJFA@?$AAx?$AAh?$AA?9?$AAZ?$AAA?$AA?$AA@ 0000000180027ea0     libucrt:lcidtoname_downlevel.obj
 0002:00003eb0       ??_C@_1M@LGPJHNJH@?$AAz?$AAu?$AA?9?$AAZ?$AAA?$AA?$AA@ 0000000180027eb0     libucrt:lcidtoname_downlevel.obj
 0002:00003ec0       ??_C@_1M@HOKAOIO@?$AAa?$AAf?$AA?9?$AAZ?$AAA?$AA?$AA@ 0000000180027ec0     libucrt:lcidtoname_downlevel.obj
 0002:00003ed0       ??_C@_1M@DPCLHLIE@?$AAk?$AAa?$AA?9?$AAG?$AAE?$AA?$AA@ 0000000180027ed0     libucrt:lcidtoname_downlevel.obj
 0002:00003ee0       ??_C@_1M@BLKMHJBI@?$AAf?$AAo?$AA?9?$AAF?$AAO?$AA?$AA@ 0000000180027ee0     libucrt:lcidtoname_downlevel.obj
 0002:00003ef0       ??_C@_1M@LGGJAPPB@?$AAh?$AAi?$AA?9?$AAI?$AAN?$AA?$AA@ 0000000180027ef0     libucrt:lcidtoname_downlevel.obj
 0002:00003f00       ??_C@_1M@FIKPIHFE@?$AAm?$AAt?$AA?9?$AAM?$AAT?$AA?$AA@ 0000000180027f00     libucrt:lcidtoname_downlevel.obj
 0002:00003f10       ??_C@_1M@HEGGPBFA@?$AAs?$AAe?$AA?9?$AAN?$AAO?$AA?$AA@ 0000000180027f10     libucrt:lcidtoname_downlevel.obj
 0002:00003f20       ??_C@_1M@EIBJEEPA@?$AAm?$AAs?$AA?9?$AAM?$AAY?$AA?$AA@ 0000000180027f20     libucrt:lcidtoname_downlevel.obj
 0002:00003f30       ??_C@_1M@FHLBGMPP@?$AAk?$AAk?$AA?9?$AAK?$AAZ?$AA?$AA@ 0000000180027f30     libucrt:lcidtoname_downlevel.obj
 0002:00003f40       ??_C@_1M@NGJJLCGI@?$AAk?$AAy?$AA?9?$AAK?$AAG?$AA?$AA@ 0000000180027f40     libucrt:lcidtoname_downlevel.obj
 0002:00003f50       ??_C@_1M@GIENNBFC@?$AAs?$AAw?$AA?9?$AAK?$AAE?$AA?$AA@ 0000000180027f50     libucrt:lcidtoname_downlevel.obj
 0002:00003f60       ??_C@_1BG@NDGMJIMJ@?$AAu?$AAz?$AA?9?$AAU?$AAZ?$AA?9?$AAL?$AAa?$AAt?$AAn?$AA?$AA@ 0000000180027f60     libucrt:lcidtoname_downlevel.obj
 0002:00003f78       ??_C@_1M@IDCCIHBC@?$AAt?$AAt?$AA?9?$AAR?$AAU?$AA?$AA@ 0000000180027f78     libucrt:lcidtoname_downlevel.obj
 0002:00003f88       ??_C@_1M@LOICPMOJ@?$AAb?$AAn?$AA?9?$AAI?$AAN?$AA?$AA@ 0000000180027f88     libucrt:lcidtoname_downlevel.obj
 0002:00003f98       ??_C@_1M@KPKKNEAH@?$AAp?$AAa?$AA?9?$AAI?$AAN?$AA?$AA@ 0000000180027f98     libucrt:lcidtoname_downlevel.obj
 0002:00003fa8       ??_C@_1M@PJGPPBOG@?$AAg?$AAu?$AA?9?$AAI?$AAN?$AA?$AA@ 0000000180027fa8     libucrt:lcidtoname_downlevel.obj
 0002:00003fb8       ??_C@_1M@KMKMOPHI@?$AAt?$AAa?$AA?9?$AAI?$AAN?$AA?$AA@ 0000000180027fb8     libucrt:lcidtoname_downlevel.obj
 0002:00003fc8       ??_C@_1M@KFEHEPAC@?$AAt?$AAe?$AA?9?$AAI?$AAN?$AA?$AA@ 0000000180027fc8     libucrt:lcidtoname_downlevel.obj
 0002:00003fd8       ??_C@_1M@CDCLMGHI@?$AAk?$AAn?$AA?9?$AAI?$AAN?$AA?$AA@ 0000000180027fd8     libucrt:lcidtoname_downlevel.obj
 0002:00003fe8       ??_C@_1M@MIODLDKF@?$AAm?$AAl?$AA?9?$AAI?$AAN?$AA?$AA@ 0000000180027fe8     libucrt:lcidtoname_downlevel.obj
 0002:00003ff8       ??_C@_1M@PBIEACPO@?$AAm?$AAr?$AA?9?$AAI?$AAN?$AA?$AA@ 0000000180027ff8     libucrt:lcidtoname_downlevel.obj
 0002:00004008       ??_C@_1M@NIDEAGPH@?$AAs?$AAa?$AA?9?$AAI?$AAN?$AA?$AA@ 0000000180028008     libucrt:lcidtoname_downlevel.obj
 0002:00004018       ??_C@_1M@FHIHCBIO@?$AAm?$AAn?$AA?9?$AAM?$AAN?$AA?$AA@ 0000000180028018     libucrt:lcidtoname_downlevel.obj
 0002:00004028       ??_C@_1M@JAIJPENP@?$AAc?$AAy?$AA?9?$AAG?$AAB?$AA?$AA@ 0000000180028028     libucrt:lcidtoname_downlevel.obj
 0002:00004038       ??_C@_1M@PHGFBEPN@?$AAg?$AAl?$AA?9?$AAE?$AAS?$AA?$AA@ 0000000180028038     libucrt:lcidtoname_downlevel.obj
 0002:00004048       ??_C@_1O@KPIPDNCP@?$AAk?$AAo?$AAk?$AA?9?$AAI?$AAN?$AA?$AA@ 0000000180028048     libucrt:lcidtoname_downlevel.obj
 0002:00004058       ??_C@_1O@KNHJLDJA@?$AAs?$AAy?$AAr?$AA?9?$AAS?$AAY?$AA?$AA@ 0000000180028058     libucrt:lcidtoname_downlevel.obj
 0002:00004068       ??_C@_1O@MKEKBLAH@?$AAd?$AAi?$AAv?$AA?9?$AAM?$AAV?$AA?$AA@ 0000000180028068     libucrt:lcidtoname_downlevel.obj
 0002:00004078       ??_C@_1O@OHDCKDDF@?$AAq?$AAu?$AAz?$AA?9?$AAB?$AAO?$AA?$AA@ 0000000180028078     libucrt:lcidtoname_downlevel.obj
 0002:00004088       ??_C@_1M@LEPJNLFD@?$AAn?$AAs?$AA?9?$AAZ?$AAA?$AA?$AA@ 0000000180028088     libucrt:lcidtoname_downlevel.obj
 0002:00004098       ??_C@_1M@OMLEIIJB@?$AAm?$AAi?$AA?9?$AAN?$AAZ?$AA?$AA@ 0000000180028098     libucrt:lcidtoname_downlevel.obj
 0002:000040a8       ??_C@_1M@PMPEAILG@?$AAa?$AAr?$AA?9?$AAI?$AAQ?$AA?$AA@ 00000001800280a8     libucrt:lcidtoname_downlevel.obj
 0002:000040b8       ??_C@_1M@CNKPNOEE@?$AAd?$AAe?$AA?9?$AAC?$AAH?$AA?$AA@ 00000001800280b8     libucrt:lcidtoname_downlevel.obj
 0002:000040c8       ??_C@_1M@LKMGMLKO@?$AAe?$AAn?$AA?9?$AAG?$AAB?$AA?$AA@ 00000001800280c8     libucrt:lcidtoname_downlevel.obj
 0002:000040d8       ??_C@_1M@PGKJFFGL@?$AAe?$AAs?$AA?9?$AAM?$AAX?$AA?$AA@ 00000001800280d8     libucrt:lcidtoname_downlevel.obj
 0002:000040e8       ??_C@_1M@DNNANBDC@?$AAf?$AAr?$AA?9?$AAB?$AAE?$AA?$AA@ 00000001800280e8     libucrt:lcidtoname_downlevel.obj
 0002:000040f8       ??_C@_1M@HLGMDFHM@?$AAi?$AAt?$AA?9?$AAC?$AAH?$AA?$AA@ 00000001800280f8     libucrt:lcidtoname_downlevel.obj
 0002:00004108       ??_C@_1M@CLLBGJH@?$AAn?$AAl?$AA?9?$AAB?$AAE?$AA?$AA@ 0000000180028108     libucrt:lcidtoname_downlevel.obj
 0002:00004118       ??_C@_1M@BODBOGLF@?$AAn?$AAn?$AA?9?$AAN?$AAO?$AA?$AA@ 0000000180028118     libucrt:lcidtoname_downlevel.obj
 0002:00004128       ??_C@_1M@HFFAHKAD@?$AAp?$AAt?$AA?9?$AAP?$AAT?$AA?$AA@ 0000000180028128     libucrt:lcidtoname_downlevel.obj
 0002:00004138       ??_C@_1BG@LNOAKHIE@?$AAs?$AAr?$AA?9?$AAS?$AAP?$AA?9?$AAL?$AAa?$AAt?$AAn?$AA?$AA@ 0000000180028138     libucrt:lcidtoname_downlevel.obj
 0002:00004150       ??_C@_1M@HBMHBGAK@?$AAs?$AAv?$AA?9?$AAF?$AAI?$AA?$AA@ 0000000180028150     libucrt:lcidtoname_downlevel.obj
 0002:00004160       ??_C@_1BG@DGCJGJBE@?$AAa?$AAz?$AA?9?$AAA?$AAZ?$AA?9?$AAC?$AAy?$AAr?$AAl?$AA?$AA@ 0000000180028160     libucrt:lcidtoname_downlevel.obj
 0002:00004178       ??_C@_1M@KEJDAAHB@?$AAs?$AAe?$AA?9?$AAS?$AAE?$AA?$AA@ 0000000180028178     libucrt:lcidtoname_downlevel.obj
 0002:00004188       ??_C@_1M@HEIBJJAD@?$AAm?$AAs?$AA?9?$AAB?$AAN?$AA?$AA@ 0000000180028188     libucrt:lcidtoname_downlevel.obj
 0002:00004198       ??_C@_1BG@PBGJMCEM@?$AAu?$AAz?$AA?9?$AAU?$AAZ?$AA?9?$AAC?$AAy?$AAr?$AAl?$AA?$AA@ 0000000180028198     libucrt:lcidtoname_downlevel.obj
 0002:000041b0       ??_C@_1O@LAOBCMDF@?$AAq?$AAu?$AAz?$AA?9?$AAE?$AAC?$AA?$AA@ 00000001800281b0     libucrt:lcidtoname_downlevel.obj
 0002:000041c0       ??_C@_1M@POEEMAIO@?$AAa?$AAr?$AA?9?$AAE?$AAG?$AA?$AA@ 00000001800281c0     libucrt:lcidtoname_downlevel.obj
 0002:000041d0       ??_C@_1M@EFAKDEDL@?$AAz?$AAh?$AA?9?$AAH?$AAK?$AA?$AA@ 00000001800281d0     libucrt:lcidtoname_downlevel.obj
 0002:000041e0       ??_C@_1M@HKKIJHGI@?$AAd?$AAe?$AA?9?$AAA?$AAT?$AA?$AA@ 00000001800281e0     libucrt:lcidtoname_downlevel.obj
 0002:000041f0       ??_C@_1M@KBFBEHJF@?$AAe?$AAn?$AA?9?$AAA?$AAU?$AA?$AA@ 00000001800281f0     libucrt:lcidtoname_downlevel.obj
 0002:00004200       ??_C@_1M@MNPLFAAH@?$AAe?$AAs?$AA?9?$AAE?$AAS?$AA?$AA@ 0000000180028200     libucrt:lcidtoname_downlevel.obj
 0002:00004210       ??_C@_1M@HJOOJFMA@?$AAf?$AAr?$AA?9?$AAC?$AAA?$AA?$AA@ 0000000180028210     libucrt:lcidtoname_downlevel.obj
 0002:00004220       ??_C@_1BG@JPOFPNAB@?$AAs?$AAr?$AA?9?$AAS?$AAP?$AA?9?$AAC?$AAy?$AAr?$AAl?$AA?$AA@ 0000000180028220     libucrt:lcidtoname_downlevel.obj
 0002:00004238       ??_C@_1M@LNFOCMOB@?$AAs?$AAe?$AA?9?$AAF?$AAI?$AA?$AA@ 0000000180028238     libucrt:lcidtoname_downlevel.obj
 0002:00004248       ??_C@_1O@MGJBOAMB@?$AAq?$AAu?$AAz?$AA?9?$AAP?$AAE?$AA?$AA@ 0000000180028248     libucrt:lcidtoname_downlevel.obj
 0002:00004258       ??_C@_1M@GJINLBOK@?$AAa?$AAr?$AA?9?$AAL?$AAY?$AA?$AA@ 0000000180028258     libucrt:lcidtoname_downlevel.obj
 0002:00004268       ??_C@_1M@GGMNHJNL@?$AAz?$AAh?$AA?9?$AAS?$AAG?$AA?$AA@ 0000000180028268     libucrt:lcidtoname_downlevel.obj
 0002:00004278       ??_C@_1M@HOIKODND@?$AAd?$AAe?$AA?9?$AAL?$AAU?$AA?$AA@ 0000000180028278     libucrt:lcidtoname_downlevel.obj
 0002:00004288       ??_C@_1M@DDOCCGFG@?$AAe?$AAn?$AA?9?$AAC?$AAA?$AA?$AA@ 0000000180028288     libucrt:lcidtoname_downlevel.obj
 0002:00004298       ??_C@_1M@BNOEMJLF@?$AAe?$AAs?$AA?9?$AAG?$AAT?$AA?$AA@ 0000000180028298     libucrt:lcidtoname_downlevel.obj
 0002:000042a8       ??_C@_1M@EOGNKEK@?$AAf?$AAr?$AA?9?$AAC?$AAH?$AA?$AA@ 00000001800282a8     libucrt:lcidtoname_downlevel.obj
 0002:000042b8       ??_C@_1M@FLIDJFHL@?$AAh?$AAr?$AA?9?$AAB?$AAA?$AA?$AA@ 00000001800282b8     libucrt:lcidtoname_downlevel.obj
 0002:000042c8       ??_C@_1O@FMCELNAJ@?$AAs?$AAm?$AAj?$AA?9?$AAN?$AAO?$AA?$AA@ 00000001800282c8     libucrt:lcidtoname_downlevel.obj
 0002:000042d8       ??_C@_1M@JHGLJMGJ@?$AAa?$AAr?$AA?9?$AAD?$AAZ?$AA?$AA@ 00000001800282d8     libucrt:lcidtoname_downlevel.obj
 0002:000042e8       ??_C@_1M@JKKFDCNP@?$AAz?$AAh?$AA?9?$AAM?$AAO?$AA?$AA@ 00000001800282e8     libucrt:lcidtoname_downlevel.obj
 0002:000042f8       ??_C@_1M@GEEFALPE@?$AAd?$AAe?$AA?9?$AAL?$AAI?$AA?$AA@ 00000001800282f8     libucrt:lcidtoname_downlevel.obj
 0002:00004308       ??_C@_1M@IGEOFBG@?$AAe?$AAn?$AA?9?$AAN?$AAZ?$AA?$AA@ 0000000180028308     libucrt:lcidtoname_downlevel.obj
 0002:00004318       ??_C@_1M@KDBONEHP@?$AAe?$AAs?$AA?9?$AAC?$AAR?$AA?$AA@ 0000000180028318     libucrt:lcidtoname_downlevel.obj
 0002:00004328       ??_C@_1M@FHMDOHNN@?$AAf?$AAr?$AA?9?$AAL?$AAU?$AA?$AA@ 0000000180028328     libucrt:lcidtoname_downlevel.obj
 0002:00004338       ??_C@_1BG@NFKKMAFG@?$AAb?$AAs?$AA?9?$AAB?$AAA?$AA?9?$AAL?$AAa?$AAt?$AAn?$AA?$AA@ 0000000180028338     libucrt:lcidtoname_downlevel.obj
 0002:00004350       ??_C@_1O@IMNBEMCI@?$AAs?$AAm?$AAj?$AA?9?$AAS?$AAE?$AA?$AA@ 0000000180028350     libucrt:lcidtoname_downlevel.obj
 0002:00004360       ??_C@_1M@DHHMBNDP@?$AAa?$AAr?$AA?9?$AAM?$AAA?$AA?$AA@ 0000000180028360     libucrt:lcidtoname_downlevel.obj
 0002:00004370       ??_C@_1M@BNBLJCGH@?$AAe?$AAn?$AA?9?$AAI?$AAE?$AA?$AA@ 0000000180028370     libucrt:lcidtoname_downlevel.obj
 0002:00004380       ??_C@_1M@GEPAFMDL@?$AAe?$AAs?$AA?9?$AAP?$AAA?$AA?$AA@ 0000000180028380     libucrt:lcidtoname_downlevel.obj
 0002:00004390       ??_C@_1M@OJONDMDL@?$AAf?$AAr?$AA?9?$AAM?$AAC?$AA?$AA@ 0000000180028390     libucrt:lcidtoname_downlevel.obj
 0002:000043a0       ??_C@_1BG@OBCNFJB@?$AAs?$AAr?$AA?9?$AAB?$AAA?$AA?9?$AAL?$AAa?$AAt?$AAn?$AA?$AA@ 00000001800283a0     libucrt:lcidtoname_downlevel.obj
 0002:000043b8       ??_C@_1O@KEMEEGPO@?$AAs?$AAm?$AAa?$AA?9?$AAN?$AAO?$AA?$AA@ 00000001800283b8     libucrt:lcidtoname_downlevel.obj
 0002:000043c8       ??_C@_1M@ELMGFODK@?$AAa?$AAr?$AA?9?$AAT?$AAN?$AA?$AA@ 00000001800283c8     libucrt:lcidtoname_downlevel.obj
 0002:000043d8       ??_C@_1M@BHDLHFAF@?$AAe?$AAn?$AA?9?$AAZ?$AAA?$AA?$AA@ 00000001800283d8     libucrt:lcidtoname_downlevel.obj
 0002:000043e8       ??_C@_1M@BMGIGLIF@?$AAe?$AAs?$AA?9?$AAD?$AAO?$AA?$AA@ 00000001800283e8     libucrt:lcidtoname_downlevel.obj
 0002:000043f8       ??_C@_1BG@CMBHIPBE@?$AAs?$AAr?$AA?9?$AAB?$AAA?$AA?9?$AAC?$AAy?$AAr?$AAl?$AA?$AA@ 00000001800283f8     libucrt:lcidtoname_downlevel.obj
 0002:00004410       ??_C@_1O@HEDBLHNP@?$AAs?$AAm?$AAa?$AA?9?$AAS?$AAE?$AA?$AA@ 0000000180028410     libucrt:lcidtoname_downlevel.obj
 0002:00004420       ??_C@_1M@DAGCADIM@?$AAa?$AAr?$AA?9?$AAO?$AAM?$AA?$AA@ 0000000180028420     libucrt:lcidtoname_downlevel.obj
 0002:00004430       ??_C@_1M@FODLMICG@?$AAe?$AAn?$AA?9?$AAJ?$AAM?$AA?$AA@ 0000000180028430     libucrt:lcidtoname_downlevel.obj
 0002:00004440       ??_C@_1M@DNMLCIHB@?$AAe?$AAs?$AA?9?$AAV?$AAE?$AA?$AA@ 0000000180028440     libucrt:lcidtoname_downlevel.obj
 0002:00004450       ??_C@_1O@EOKHMKJK@?$AAs?$AAm?$AAs?$AA?9?$AAF?$AAI?$AA?$AA@ 0000000180028450     libucrt:lcidtoname_downlevel.obj
 0002:00004460       ??_C@_1M@CAFJMKOF@?$AAa?$AAr?$AA?9?$AAY?$AAE?$AA?$AA@ 0000000180028460     libucrt:lcidtoname_downlevel.obj
 0002:00004470       ??_C@_1M@CBFHIJLI@?$AAe?$AAn?$AA?9?$AAC?$AAB?$AA?$AA@ 0000000180028470     libucrt:lcidtoname_downlevel.obj
 0002:00004480       ??_C@_1M@BGNFLDN@?$AAe?$AAs?$AA?9?$AAC?$AAO?$AA?$AA@ 0000000180028480     libucrt:lcidtoname_downlevel.obj
 0002:00004490       ??_C@_1O@JMPHMAMC@?$AAs?$AAm?$AAn?$AA?9?$AAF?$AAI?$AA?$AA@ 0000000180028490     libucrt:lcidtoname_downlevel.obj
 0002:000044a0       ??_C@_1M@JLANABKE@?$AAa?$AAr?$AA?9?$AAS?$AAY?$AA?$AA@ 00000001800284a0     libucrt:lcidtoname_downlevel.obj
 0002:000044b0       ??_C@_1M@HPKGCFGN@?$AAe?$AAn?$AA?9?$AAB?$AAZ?$AA?$AA@ 00000001800284b0     libucrt:lcidtoname_downlevel.obj
 0002:000044c0       ??_C@_1M@OLJCMLGM@?$AAe?$AAs?$AA?9?$AAP?$AAE?$AA?$AA@ 00000001800284c0     libucrt:lcidtoname_downlevel.obj
 0002:000044d0       ??_C@_1M@MKKGFKLE@?$AAa?$AAr?$AA?9?$AAJ?$AAO?$AA?$AA@ 00000001800284d0     libucrt:lcidtoname_downlevel.obj
 0002:000044e0       ??_C@_1M@EKPGLDNI@?$AAe?$AAn?$AA?9?$AAT?$AAT?$AA?$AA@ 00000001800284e0     libucrt:lcidtoname_downlevel.obj
 0002:000044f0       ??_C@_1M@OONGHFHE@?$AAe?$AAs?$AA?9?$AAA?$AAR?$AA?$AA@ 00000001800284f0     libucrt:lcidtoname_downlevel.obj
 0002:00004500       ??_C@_1M@OOJFGBHE@?$AAa?$AAr?$AA?9?$AAL?$AAB?$AA?$AA@ 0000000180028500     libucrt:lcidtoname_downlevel.obj
 0002:00004510       ??_C@_1M@GCEJHNEG@?$AAe?$AAn?$AA?9?$AAZ?$AAW?$AA?$AA@ 0000000180028510     libucrt:lcidtoname_downlevel.obj
 0002:00004520       ??_C@_1M@JNOCAHJI@?$AAe?$AAs?$AA?9?$AAE?$AAC?$AA?$AA@ 0000000180028520     libucrt:lcidtoname_downlevel.obj
 0002:00004530       ??_C@_1M@JEFHPGGB@?$AAa?$AAr?$AA?9?$AAK?$AAW?$AA?$AA@ 0000000180028530     libucrt:lcidtoname_downlevel.obj
 0002:00004540       ??_C@_1M@MLKIBJOJ@?$AAe?$AAn?$AA?9?$AAP?$AAH?$AA?$AA@ 0000000180028540     libucrt:lcidtoname_downlevel.obj
 0002:00004550       ??_C@_1M@BDNIPEND@?$AAe?$AAs?$AA?9?$AAC?$AAL?$AA?$AA@ 0000000180028550     libucrt:lcidtoname_downlevel.obj
 0002:00004560       ??_C@_1M@MPNMEKBD@?$AAa?$AAr?$AA?9?$AAA?$AAE?$AA?$AA@ 0000000180028560     libucrt:lcidtoname_downlevel.obj
 0002:00004570       ??_C@_1M@KBJALCPI@?$AAe?$AAs?$AA?9?$AAU?$AAY?$AA?$AA@ 0000000180028570     libucrt:lcidtoname_downlevel.obj
 0002:00004580       ??_C@_1M@LLCCOAGA@?$AAa?$AAr?$AA?9?$AAB?$AAH?$AA?$AA@ 0000000180028580     libucrt:lcidtoname_downlevel.obj
 0002:00004590       ??_C@_1M@PBFNCDEL@?$AAe?$AAs?$AA?9?$AAP?$AAY?$AA?$AA@ 0000000180028590     libucrt:lcidtoname_downlevel.obj
 0002:000045a0       ??_C@_1M@EDGINPNP@?$AAa?$AAr?$AA?9?$AAQ?$AAA?$AA?$AA@ 00000001800285a0     libucrt:lcidtoname_downlevel.obj
 0002:000045b0       ??_C@_1M@MKDBIIJI@?$AAe?$AAs?$AA?9?$AAB?$AAO?$AA?$AA@ 00000001800285b0     libucrt:lcidtoname_downlevel.obj
 0002:000045c0       ??_C@_1M@CPKKEBLD@?$AAe?$AAs?$AA?9?$AAS?$AAV?$AA?$AA@ 00000001800285c0     libucrt:lcidtoname_downlevel.obj
 0002:000045d0       ??_C@_1M@NDBGMMJL@?$AAe?$AAs?$AA?9?$AAH?$AAN?$AA?$AA@ 00000001800285d0     libucrt:lcidtoname_downlevel.obj
 0002:000045e0       ??_C@_1M@JIJIBHDP@?$AAe?$AAs?$AA?9?$AAN?$AAI?$AA?$AA@ 00000001800285e0     libucrt:lcidtoname_downlevel.obj
 0002:000045f0       ??_C@_1M@CGFMKEEK@?$AAe?$AAs?$AA?9?$AAP?$AAR?$AA?$AA@ 00000001800285f0     libucrt:lcidtoname_downlevel.obj
 0002:00004600       ??_C@_1O@ICJHKIIK@?$AAz?$AAh?$AA?9?$AAC?$AAH?$AAT?$AA?$AA@ 0000000180028600     libucrt:lcidtoname_downlevel.obj
 0002:00004610       ??_C@_15CLNEJCE@?$AAs?$AAr?$AA?$AA@ 0000000180028610     libucrt:lcidtoname_downlevel.obj
 0002:00005460       ??_C@_1M@KAHEKEIG@?$AAa?$AAf?$AA?9?$AAz?$AAa?$AA?$AA@ 0000000180029460     libucrt:lcidtoname_downlevel.obj
 0002:00005470       ??_C@_1M@GIECOABL@?$AAa?$AAr?$AA?9?$AAa?$AAe?$AA?$AA@ 0000000180029470     libucrt:lcidtoname_downlevel.obj
 0002:00005480       ??_C@_1M@BMLMEKGI@?$AAa?$AAr?$AA?9?$AAb?$AAh?$AA?$AA@ 0000000180029480     libucrt:lcidtoname_downlevel.obj
 0002:00005490       ??_C@_1M@DAPFDGGB@?$AAa?$AAr?$AA?9?$AAd?$AAz?$AA?$AA@ 0000000180029490     libucrt:lcidtoname_downlevel.obj
 0002:000054a0       ??_C@_1M@FJNKGKIG@?$AAa?$AAr?$AA?9?$AAe?$AAg?$AA?$AA@ 00000001800294a0     libucrt:lcidtoname_downlevel.obj
 0002:000054b0       ??_C@_1M@FLGKKCLO@?$AAa?$AAr?$AA?9?$AAi?$AAq?$AA?$AA@ 00000001800294b0     libucrt:lcidtoname_downlevel.obj
 0002:000054c0       ??_C@_1M@GNDIPALM@?$AAa?$AAr?$AA?9?$AAj?$AAo?$AA?$AA@ 00000001800294c0     libucrt:lcidtoname_downlevel.obj
 0002:000054d0       ??_C@_1M@DDMJFMGJ@?$AAa?$AAr?$AA?9?$AAk?$AAw?$AA?$AA@ 00000001800294d0     libucrt:lcidtoname_downlevel.obj
 0002:000054e0       ??_C@_1M@EJALMLHM@?$AAa?$AAr?$AA?9?$AAl?$AAb?$AA?$AA@ 00000001800294e0     libucrt:lcidtoname_downlevel.obj
 0002:000054f0       ??_C@_1M@MOBDBLOC@?$AAa?$AAr?$AA?9?$AAl?$AAy?$AA?$AA@ 00000001800294f0     libucrt:lcidtoname_downlevel.obj
 0002:00005500       ??_C@_1M@JAOCLHDH@?$AAa?$AAr?$AA?9?$AAm?$AAa?$AA?$AA@ 0000000180029500     libucrt:lcidtoname_downlevel.obj
 0002:00005510       ??_C@_1M@JHPMKJIE@?$AAa?$AAr?$AA?9?$AAo?$AAm?$AA?$AA@ 0000000180029510     libucrt:lcidtoname_downlevel.obj
 0002:00005520       ??_C@_1M@OEPGHFNH@?$AAa?$AAr?$AA?9?$AAq?$AAa?$AA?$AA@ 0000000180029520     libucrt:lcidtoname_downlevel.obj
 0002:00005530       ??_C@_1M@KJDONENM@?$AAa?$AAr?$AA?9?$AAs?$AAa?$AA?$AA@ 0000000180029530     libucrt:lcidtoname_downlevel.obj
 0002:00005540       ??_C@_1M@DMJDKLKM@?$AAa?$AAr?$AA?9?$AAs?$AAy?$AA?$AA@ 0000000180029540     libucrt:lcidtoname_downlevel.obj
 0002:00005550       ??_C@_1M@OMFIPEDC@?$AAa?$AAr?$AA?9?$AAt?$AAn?$AA?$AA@ 0000000180029550     libucrt:lcidtoname_downlevel.obj
 0002:00005560       ??_C@_1M@IHMHGAON@?$AAa?$AAr?$AA?9?$AAy?$AAe?$AA?$AA@ 0000000180029560     libucrt:lcidtoname_downlevel.obj
 0002:00005570       ??_C@_1BG@KDCPGJGB@?$AAa?$AAz?$AA?9?$AAa?$AAz?$AA?9?$AAc?$AAy?$AAr?$AAl?$AA?$AA@ 0000000180029570     libucrt:lcidtoname_downlevel.obj
 0002:00005588       ??_C@_1BG@IBCKDDOE@?$AAa?$AAz?$AA?9?$AAa?$AAz?$AA?9?$AAl?$AAa?$AAt?$AAn?$AA?$AA@ 0000000180029588     libucrt:lcidtoname_downlevel.obj
 0002:000055a0       ??_C@_1M@EGPFDCPD@?$AAb?$AAe?$AA?9?$AAb?$AAy?$AA?$AA@ 00000001800295a0     libucrt:lcidtoname_downlevel.obj
 0002:000055b0       ??_C@_1M@PCMGMCGC@?$AAb?$AAg?$AA?9?$AAb?$AAg?$AA?$AA@ 00000001800295b0     libucrt:lcidtoname_downlevel.obj
 0002:000055c0       ??_C@_1M@BJBMFGOB@?$AAb?$AAn?$AA?9?$AAi?$AAn?$AA?$AA@ 00000001800295c0     libucrt:lcidtoname_downlevel.obj
 0002:000055d0       ??_C@_1BG@EAKMMACD@?$AAb?$AAs?$AA?9?$AAb?$AAa?$AA?9?$AAl?$AAa?$AAt?$AAn?$AA?$AA@ 00000001800295d0     libucrt:lcidtoname_downlevel.obj
 0002:000055e8       ??_C@_1M@KGADAODK@?$AAc?$AAa?$AA?9?$AAe?$AAs?$AA?$AA@ 00000001800295e8     libucrt:lcidtoname_downlevel.obj
 0002:000055f8       ??_C@_1M@COAJPDHI@?$AAc?$AAs?$AA?9?$AAc?$AAz?$AA?$AA@ 00000001800295f8     libucrt:lcidtoname_downlevel.obj
 0002:00005608       ??_C@_1M@DHBHFONH@?$AAc?$AAy?$AA?9?$AAg?$AAb?$AA?$AA@ 0000000180029608     libucrt:lcidtoname_downlevel.obj
 0002:00005618       ??_C@_1M@IMGKELGA@?$AAd?$AAa?$AA?9?$AAd?$AAk?$AA?$AA@ 0000000180029618     libucrt:lcidtoname_downlevel.obj
 0002:00005628       ??_C@_1M@NNDGDNGA@?$AAd?$AAe?$AA?9?$AAa?$AAt?$AA?$AA@ 0000000180029628     libucrt:lcidtoname_downlevel.obj
 0002:00005638       ??_C@_1M@IKDBHEEM@?$AAd?$AAe?$AA?9?$AAc?$AAh?$AA?$AA@ 0000000180029638     libucrt:lcidtoname_downlevel.obj
 0002:00005648       ??_C@_1M@GFFOJMCJ@?$AAd?$AAe?$AA?9?$AAd?$AAe?$AA?$AA@ 0000000180029648     libucrt:lcidtoname_downlevel.obj
 0002:00005658       ??_C@_1M@MDNLKBPM@?$AAd?$AAe?$AA?9?$AAl?$AAi?$AA?$AA@ 0000000180029658     libucrt:lcidtoname_downlevel.obj
 0002:00005668       ??_C@_1M@NJBEEJNL@?$AAd?$AAe?$AA?9?$AAl?$AAu?$AA?$AA@ 0000000180029668     libucrt:lcidtoname_downlevel.obj
 0002:00005678       ??_C@_1O@GNNELBAP@?$AAd?$AAi?$AAv?$AA?9?$AAm?$AAv?$AA?$AA@ 0000000180029678     libucrt:lcidtoname_downlevel.obj
 0002:00005688       ??_C@_1M@EJLEOGAE@?$AAe?$AAl?$AA?9?$AAg?$AAr?$AA?$AA@ 0000000180029688     libucrt:lcidtoname_downlevel.obj
 0002:00005698       ??_C@_1M@GMPONJN@?$AAe?$AAn?$AA?9?$AAa?$AAu?$AA?$AA@ 0000000180029698     libucrt:lcidtoname_downlevel.obj
 0002:000056a8       ??_C@_1M@NIDIIPGF@?$AAe?$AAn?$AA?9?$AAb?$AAz?$AA?$AA@ 00000001800296a8     libucrt:lcidtoname_downlevel.obj
 0002:000056b8       ??_C@_1M@JEHMIMFO@?$AAe?$AAn?$AA?9?$AAc?$AAa?$AA?$AA@ 00000001800296b8     libucrt:lcidtoname_downlevel.obj
 0002:000056c8       ??_C@_1M@IGMJCDLA@?$AAe?$AAn?$AA?9?$AAc?$AAb?$AA?$AA@ 00000001800296c8     libucrt:lcidtoname_downlevel.obj
 0002:000056d8       ??_C@_1M@BNFIGBKG@?$AAe?$AAn?$AA?9?$AAg?$AAb?$AA?$AA@ 00000001800296d8     libucrt:lcidtoname_downlevel.obj
 0002:000056e8       ??_C@_1M@LKIFDIGP@?$AAe?$AAn?$AA?9?$AAi?$AAe?$AA?$AA@ 00000001800296e8     libucrt:lcidtoname_downlevel.obj
 0002:000056f8       ??_C@_1M@PJKFGCCO@?$AAe?$AAn?$AA?9?$AAj?$AAm?$AA?$AA@ 00000001800296f8     libucrt:lcidtoname_downlevel.obj
 0002:00005708       ??_C@_1M@KPPKEPBO@?$AAe?$AAn?$AA?9?$AAn?$AAz?$AA?$AA@ 0000000180029708     libucrt:lcidtoname_downlevel.obj
 0002:00005718       ??_C@_1M@GMDGLDOB@?$AAe?$AAn?$AA?9?$AAp?$AAh?$AA?$AA@ 0000000180029718     libucrt:lcidtoname_downlevel.obj
 0002:00005728       ??_C@_1M@ONGIBJNA@?$AAe?$AAn?$AA?9?$AAt?$AAt?$AA?$AA@ 0000000180029728     libucrt:lcidtoname_downlevel.obj
 0002:00005738       ??_C@_1M@LLODPCMM@?$AAe?$AAn?$AA?9?$AAu?$AAs?$AA?$AA@ 0000000180029738     libucrt:lcidtoname_downlevel.obj
 0002:00005748       ??_C@_1M@LAKFNPAN@?$AAe?$AAn?$AA?9?$AAz?$AAa?$AA?$AA@ 0000000180029748     libucrt:lcidtoname_downlevel.obj
 0002:00005758       ??_C@_1M@MFNHNHEO@?$AAe?$AAn?$AA?9?$AAz?$AAw?$AA?$AA@ 0000000180029758     libucrt:lcidtoname_downlevel.obj
 0002:00005768       ??_C@_1M@EJEINPHM@?$AAe?$AAs?$AA?9?$AAa?$AAr?$AA?$AA@ 0000000180029768     libucrt:lcidtoname_downlevel.obj
 0002:00005778       ??_C@_1M@GNKPCCJA@?$AAe?$AAs?$AA?9?$AAb?$AAo?$AA?$AA@ 0000000180029778     libucrt:lcidtoname_downlevel.obj
 0002:00005788       ??_C@_1M@LEEGFONL@?$AAe?$AAs?$AA?9?$AAc?$AAl?$AA?$AA@ 0000000180029788     libucrt:lcidtoname_downlevel.obj
 0002:00005798       ??_C@_1M@KGPDPBDF@?$AAe?$AAs?$AA?9?$AAc?$AAo?$AA?$AA@ 0000000180029798     libucrt:lcidtoname_downlevel.obj
 0002:000057a8       ??_C@_1M@EIAHOHH@?$AAe?$AAs?$AA?9?$AAc?$AAr?$AA?$AA@ 00000001800297a8     libucrt:lcidtoname_downlevel.obj
 0002:000057b8       ??_C@_1M@LLPGMBIN@?$AAe?$AAs?$AA?9?$AAd?$AAo?$AA?$AA@ 00000001800297b8     libucrt:lcidtoname_downlevel.obj
 0002:000057c8       ??_C@_1M@DKHMKNJA@?$AAe?$AAs?$AA?9?$AAe?$AAc?$AA?$AA@ 00000001800297c8     libucrt:lcidtoname_downlevel.obj
 0002:000057d8       ??_C@_1M@GKGFPKAP@?$AAe?$AAs?$AA?9?$AAe?$AAs?$AA?$AA@ 00000001800297d8     libucrt:lcidtoname_downlevel.obj
 0002:000057e8       ??_C@_1M@LKHKGDLN@?$AAe?$AAs?$AA?9?$AAg?$AAt?$AA?$AA@ 00000001800297e8     libucrt:lcidtoname_downlevel.obj
 0002:000057f8       ??_C@_1M@HEIIGGJD@?$AAe?$AAs?$AA?9?$AAh?$AAn?$AA?$AA@ 00000001800297f8     libucrt:lcidtoname_downlevel.obj
 0002:00005808       ??_C@_1M@FBDHPPGD@?$AAe?$AAs?$AA?9?$AAm?$AAx?$AA?$AA@ 0000000180029808     libucrt:lcidtoname_downlevel.obj
 0002:00005818       ??_C@_1M@DPAGLNDH@?$AAe?$AAs?$AA?9?$AAn?$AAi?$AA?$AA@ 0000000180029818     libucrt:lcidtoname_downlevel.obj
 0002:00005828       ??_C@_1M@MDGOPGDD@?$AAe?$AAs?$AA?9?$AAp?$AAa?$AA?$AA@ 0000000180029828     libucrt:lcidtoname_downlevel.obj
 0002:00005838       ??_C@_1M@EMAMGBGE@?$AAe?$AAs?$AA?9?$AAp?$AAe?$AA?$AA@ 0000000180029838     libucrt:lcidtoname_downlevel.obj
 0002:00005848       ??_C@_1M@IBMCAOEC@?$AAe?$AAs?$AA?9?$AAp?$AAr?$AA?$AA@ 0000000180029848     libucrt:lcidtoname_downlevel.obj
 0002:00005858       ??_C@_1M@FGMDIJED@?$AAe?$AAs?$AA?9?$AAp?$AAy?$AA?$AA@ 0000000180029858     libucrt:lcidtoname_downlevel.obj
 0002:00005868       ??_C@_1M@IIDEOLLL@?$AAe?$AAs?$AA?9?$AAs?$AAv?$AA?$AA@ 0000000180029868     libucrt:lcidtoname_downlevel.obj
 0002:00005878       ??_C@_1M@GAOBIPA@?$AAe?$AAs?$AA?9?$AAu?$AAy?$AA?$AA@ 0000000180029878     libucrt:lcidtoname_downlevel.obj
 0002:00005888       ??_C@_1M@JKFFICHJ@?$AAe?$AAs?$AA?9?$AAv?$AAe?$AA?$AA@ 0000000180029888     libucrt:lcidtoname_downlevel.obj
 0002:00005898       ??_C@_1M@PNMLOJDF@?$AAe?$AAt?$AA?9?$AAe?$AAe?$AA?$AA@ 0000000180029898     libucrt:lcidtoname_downlevel.obj
 0002:000058a8       ??_C@_1M@GHHLIKEI@?$AAe?$AAu?$AA?9?$AAe?$AAs?$AA?$AA@ 00000001800298a8     libucrt:lcidtoname_downlevel.obj
 0002:000058b8       ??_C@_1M@PBNONODE@?$AAf?$AAa?$AA?9?$AAi?$AAr?$AA?$AA@ 00000001800298b8     libucrt:lcidtoname_downlevel.obj
 0002:000058c8       ??_C@_1M@JEEHPMIL@?$AAf?$AAi?$AA?9?$AAf?$AAi?$AA?$AA@ 00000001800298c8     libucrt:lcidtoname_downlevel.obj
 0002:000058d8       ??_C@_1M@LMDCNDBA@?$AAf?$AAo?$AA?9?$AAf?$AAo?$AA?$AA@ 00000001800298d8     libucrt:lcidtoname_downlevel.obj
 0002:000058e8       ??_C@_1M@JKEOHLDK@?$AAf?$AAr?$AA?9?$AAb?$AAe?$AA?$AA@ 00000001800298e8     libucrt:lcidtoname_downlevel.obj
 0002:000058f8       ??_C@_1M@NOHADPMI@?$AAf?$AAr?$AA?9?$AAc?$AAa?$AA?$AA@ 00000001800298f8     libucrt:lcidtoname_downlevel.obj
 0002:00005908       ??_C@_1M@KDHIHAEC@?$AAf?$AAr?$AA?9?$AAc?$AAh?$AA?$AA@ 0000000180029908     libucrt:lcidtoname_downlevel.obj
 0002:00005918       ??_C@_1M@MMBBFGAK@?$AAf?$AAr?$AA?9?$AAf?$AAr?$AA?$AA@ 0000000180029918     libucrt:lcidtoname_downlevel.obj
 0002:00005928       ??_C@_1M@PAFNENNF@?$AAf?$AAr?$AA?9?$AAl?$AAu?$AA?$AA@ 0000000180029928     libucrt:lcidtoname_downlevel.obj
 0002:00005938       ??_C@_1M@EOHDJGDD@?$AAf?$AAr?$AA?9?$AAm?$AAc?$AA?$AA@ 0000000180029938     libucrt:lcidtoname_downlevel.obj
 0002:00005948       ??_C@_1M@FAPLLOPF@?$AAg?$AAl?$AA?9?$AAe?$AAs?$AA?$AA@ 0000000180029948     libucrt:lcidtoname_downlevel.obj
 0002:00005958       ??_C@_1M@FOPBFLOO@?$AAg?$AAu?$AA?9?$AAi?$AAn?$AA?$AA@ 0000000180029958     libucrt:lcidtoname_downlevel.obj
 0002:00005968       ??_C@_1M@KBMCINPM@?$AAh?$AAe?$AA?9?$AAi?$AAl?$AA?$AA@ 0000000180029968     libucrt:lcidtoname_downlevel.obj
 0002:00005978       ??_C@_1M@BBPHKFPJ@?$AAh?$AAi?$AA?9?$AAi?$AAn?$AA?$AA@ 0000000180029978     libucrt:lcidtoname_downlevel.obj
 0002:00005988       ??_C@_1M@PMBNDPHD@?$AAh?$AAr?$AA?9?$AAb?$AAa?$AA?$AA@ 0000000180029988     libucrt:lcidtoname_downlevel.obj
 0002:00005998       ??_C@_1M@BPCKOEGE@?$AAh?$AAr?$AA?9?$AAh?$AAr?$AA?$AA@ 0000000180029998     libucrt:lcidtoname_downlevel.obj
 0002:000059a8       ??_C@_1M@GACBMHKE@?$AAh?$AAu?$AA?9?$AAh?$AAu?$AA?$AA@ 00000001800299a8     libucrt:lcidtoname_downlevel.obj
 0002:000059b8       ??_C@_1M@MILPAJJC@?$AAh?$AAy?$AA?9?$AAa?$AAm?$AA?$AA@ 00000001800299b8     libucrt:lcidtoname_downlevel.obj
 0002:000059c8       ??_C@_1M@BABBICEC@?$AAi?$AAd?$AA?9?$AAi?$AAd?$AA?$AA@ 00000001800299c8     libucrt:lcidtoname_downlevel.obj
 0002:000059d8       ??_C@_1M@BIKNHHPF@?$AAi?$AAs?$AA?9?$AAi?$AAs?$AA?$AA@ 00000001800299d8     libucrt:lcidtoname_downlevel.obj
 0002:000059e8       ??_C@_1M@NMPCJPHE@?$AAi?$AAt?$AA?9?$AAc?$AAh?$AA?$AA@ 00000001800299e8     libucrt:lcidtoname_downlevel.obj
 0002:000059f8       ??_C@_1M@GHKGFEDF@?$AAi?$AAt?$AA?9?$AAi?$AAt?$AA?$AA@ 00000001800299f8     libucrt:lcidtoname_downlevel.obj
 0002:00005a08       ??_C@_1M@NIEJCJJA@?$AAj?$AAa?$AA?9?$AAj?$AAp?$AA?$AA@ 0000000180029a08     libucrt:lcidtoname_downlevel.obj
 0002:00005a18       ??_C@_1M@JILFNBIM@?$AAk?$AAa?$AA?9?$AAg?$AAe?$AA?$AA@ 0000000180029a18     libucrt:lcidtoname_downlevel.obj
 0002:00005a28       ??_C@_1M@PACPMGPH@?$AAk?$AAk?$AA?9?$AAk?$AAz?$AA?$AA@ 0000000180029a28     libucrt:lcidtoname_downlevel.obj
 0002:00005a38       ??_C@_1M@IELFGMHA@?$AAk?$AAn?$AA?9?$AAi?$AAn?$AA?$AA@ 0000000180029a38     libucrt:lcidtoname_downlevel.obj
 0002:00005a48       ??_C@_1O@IBBJHCH@?$AAk?$AAo?$AAk?$AA?9?$AAi?$AAn?$AA?$AA@ 0000000180029a48     libucrt:lcidtoname_downlevel.obj
 0002:00005a58       ??_C@_1M@DMHAEOGC@?$AAk?$AAo?$AA?9?$AAk?$AAr?$AA?$AA@ 0000000180029a58     libucrt:lcidtoname_downlevel.obj
 0002:00005a68       ??_C@_1M@HBAHBIGA@?$AAk?$AAy?$AA?9?$AAk?$AAg?$AA?$AA@ 0000000180029a68     libucrt:lcidtoname_downlevel.obj
 0002:00005a78       ??_C@_1M@KPMILCJG@?$AAl?$AAt?$AA?9?$AAl?$AAt?$AA?$AA@ 0000000180029a78     libucrt:lcidtoname_downlevel.obj
 0002:00005a88       ??_C@_1M@BDEKKCA@?$AAl?$AAv?$AA?9?$AAl?$AAv?$AA?$AA@ 0000000180029a88     libucrt:lcidtoname_downlevel.obj
 0002:00005a98       ??_C@_1M@ELCKCCJJ@?$AAm?$AAi?$AA?9?$AAn?$AAz?$AA?$AA@ 0000000180029a98     libucrt:lcidtoname_downlevel.obj
 0002:00005aa8       ??_C@_1M@CBOOLAPA@?$AAm?$AAk?$AA?9?$AAm?$AAk?$AA?$AA@ 0000000180029aa8     libucrt:lcidtoname_downlevel.obj
 0002:00005ab8       ??_C@_1M@GPHNBJKN@?$AAm?$AAl?$AA?9?$AAi?$AAn?$AA?$AA@ 0000000180029ab8     libucrt:lcidtoname_downlevel.obj
 0002:00005ac8       ??_C@_1M@PABJILIG@?$AAm?$AAn?$AA?9?$AAm?$AAn?$AA?$AA@ 0000000180029ac8     libucrt:lcidtoname_downlevel.obj
 0002:00005ad8       ??_C@_1M@FGBKKIPG@?$AAm?$AAr?$AA?9?$AAi?$AAn?$AA?$AA@ 0000000180029ad8     libucrt:lcidtoname_downlevel.obj
 0002:00005ae8       ??_C@_1M@NDBPDDAL@?$AAm?$AAs?$AA?9?$AAb?$AAn?$AA?$AA@ 0000000180029ae8     libucrt:lcidtoname_downlevel.obj
 0002:00005af8       ??_C@_1M@OPIHOOPI@?$AAm?$AAs?$AA?9?$AAm?$AAy?$AA?$AA@ 0000000180029af8     libucrt:lcidtoname_downlevel.obj
 0002:00005b08       ??_C@_1M@PPDBCNFM@?$AAm?$AAt?$AA?9?$AAm?$AAt?$AA?$AA@ 0000000180029b08     libucrt:lcidtoname_downlevel.obj
 0002:00005b18       ??_C@_1M@KDJDKMDD@?$AAn?$AAb?$AA?9?$AAn?$AAo?$AA?$AA@ 0000000180029b18     libucrt:lcidtoname_downlevel.obj
 0002:00005b28       ??_C@_1M@KFCFLMJP@?$AAn?$AAl?$AA?9?$AAb?$AAe?$AA?$AA@ 0000000180029b28     libucrt:lcidtoname_downlevel.obj
 0002:00005b38       ??_C@_1M@KPOPDDGO@?$AAn?$AAl?$AA?9?$AAn?$AAl?$AA?$AA@ 0000000180029b38     libucrt:lcidtoname_downlevel.obj
 0002:00005b48       ??_C@_1M@LJKPEMLN@?$AAn?$AAn?$AA?9?$AAn?$AAo?$AA?$AA@ 0000000180029b48     libucrt:lcidtoname_downlevel.obj
 0002:00005b58       ??_C@_1M@BDGHHBFL@?$AAn?$AAs?$AA?9?$AAz?$AAa?$AA?$AA@ 0000000180029b58     libucrt:lcidtoname_downlevel.obj
 0002:00005b68       ??_C@_1M@IDEHOAP@?$AAp?$AAa?$AA?9?$AAi?$AAn?$AA?$AA@ 0000000180029b68     libucrt:lcidtoname_downlevel.obj
 0002:00005b78       ??_C@_1M@HDBKGOGH@?$AAp?$AAl?$AA?9?$AAp?$AAl?$AA?$AA@ 0000000180029b78     libucrt:lcidtoname_downlevel.obj
 0002:00005b88       ??_C@_1M@LJLLCMEH@?$AAp?$AAt?$AA?9?$AAb?$AAr?$AA?$AA@ 0000000180029b88     libucrt:lcidtoname_downlevel.obj
 0002:00005b98       ??_C@_1M@NCMONAAL@?$AAp?$AAt?$AA?9?$AAp?$AAt?$AA?$AA@ 0000000180029b98     libucrt:lcidtoname_downlevel.obj
 0002:00005ba8       ??_C@_1O@EAKMAJDN@?$AAq?$AAu?$AAz?$AA?9?$AAb?$AAo?$AA?$AA@ 0000000180029ba8     libucrt:lcidtoname_downlevel.obj
 0002:00005bb8       ??_C@_1O@BHHPIGDN@?$AAq?$AAu?$AAz?$AA?9?$AAe?$AAc?$AA?$AA@ 0000000180029bb8     libucrt:lcidtoname_downlevel.obj
 0002:00005bc8       ??_C@_1O@GBAPEKMJ@?$AAq?$AAu?$AAz?$AA?9?$AAp?$AAe?$AA?$AA@ 0000000180029bc8     libucrt:lcidtoname_downlevel.obj
 0002:00005bd8       ??_C@_1M@CLGLEFBO@?$AAr?$AAo?$AA?9?$AAr?$AAo?$AA?$AA@ 0000000180029bd8     libucrt:lcidtoname_downlevel.obj
 0002:00005be8       ??_C@_1M@CEEDODME@?$AAr?$AAu?$AA?9?$AAr?$AAu?$AA?$AA@ 0000000180029be8     libucrt:lcidtoname_downlevel.obj
 0002:00005bf8       ??_C@_1M@HPKKKMPP@?$AAs?$AAa?$AA?9?$AAi?$AAn?$AA?$AA@ 0000000180029bf8     libucrt:lcidtoname_downlevel.obj
 0002:00005c08       ??_C@_1M@BKMAIGOJ@?$AAs?$AAe?$AA?9?$AAf?$AAi?$AA?$AA@ 0000000180029c08     libucrt:lcidtoname_downlevel.obj
 0002:00005c18       ??_C@_1M@NDPIFLFI@?$AAs?$AAe?$AA?9?$AAn?$AAo?$AA?$AA@ 0000000180029c18     libucrt:lcidtoname_downlevel.obj
 0002:00005c28       ??_C@_1M@DANKKHJ@?$AAs?$AAe?$AA?9?$AAs?$AAe?$AA?$AA@ 0000000180029c28     libucrt:lcidtoname_downlevel.obj
 0002:00005c38       ??_C@_1M@PNBLONPJ@?$AAs?$AAk?$AA?9?$AAs?$AAk?$AA?$AA@ 0000000180029c38     libucrt:lcidtoname_downlevel.obj
 0002:00005c48       ??_C@_1M@LFMODOAL@?$AAs?$AAl?$AA?9?$AAs?$AAi?$AA?$AA@ 0000000180029c48     libucrt:lcidtoname_downlevel.obj
 0002:00005c58       ??_C@_1O@DFKOMPG@?$AAs?$AAm?$AAa?$AA?9?$AAn?$AAo?$AA?$AA@ 0000000180029c58     libucrt:lcidtoname_downlevel.obj
 0002:00005c68       ??_C@_1O@NDKPBNNH@?$AAs?$AAm?$AAa?$AA?9?$AAs?$AAe?$AA?$AA@ 0000000180029c68     libucrt:lcidtoname_downlevel.obj
 0002:00005c78       ??_C@_1O@PLLKBHAB@?$AAs?$AAm?$AAj?$AA?9?$AAn?$AAo?$AA?$AA@ 0000000180029c78     libucrt:lcidtoname_downlevel.obj
 0002:00005c88       ??_C@_1O@CLEPOGCA@?$AAs?$AAm?$AAj?$AA?9?$AAs?$AAe?$AA?$AA@ 0000000180029c88     libucrt:lcidtoname_downlevel.obj
 0002:00005c98       ??_C@_1O@DLGJGKMK@?$AAs?$AAm?$AAn?$AA?9?$AAf?$AAi?$AA?$AA@ 0000000180029c98     libucrt:lcidtoname_downlevel.obj
 0002:00005ca8       ??_C@_1O@OJDJGAJC@?$AAs?$AAm?$AAs?$AA?9?$AAf?$AAi?$AA?$AA@ 0000000180029ca8     libucrt:lcidtoname_downlevel.obj
 0002:00005cb8       ??_C@_1M@BOFOGHPB@?$AAs?$AAq?$AA?9?$AAa?$AAl?$AA?$AA@ 0000000180029cb8     libucrt:lcidtoname_downlevel.obj
 0002:00005cc8       ??_C@_1BG@LJBBIPGB@?$AAs?$AAr?$AA?9?$AAb?$AAa?$AA?9?$AAc?$AAy?$AAr?$AAl?$AA?$AA@ 0000000180029cc8     libucrt:lcidtoname_downlevel.obj
 0002:00005ce0       ??_C@_1BG@JLBENFOE@?$AAs?$AAr?$AA?9?$AAb?$AAa?$AA?9?$AAl?$AAa?$AAt?$AAn?$AA?$AA@ 0000000180029ce0     libucrt:lcidtoname_downlevel.obj
 0002:00005cf8       ??_C@_1BG@KODPNHE@?$AAs?$AAr?$AA?9?$AAs?$AAp?$AA?9?$AAc?$AAy?$AAr?$AAl?$AA?$AA@ 0000000180029cf8     libucrt:lcidtoname_downlevel.obj
 0002:00005d10       ??_C@_1BG@CIOGKHPB@?$AAs?$AAr?$AA?9?$AAs?$AAp?$AA?9?$AAl?$AAa?$AAt?$AAn?$AA?$AA@ 0000000180029d10     libucrt:lcidtoname_downlevel.obj
 0002:00005d28       ??_C@_1M@NGFJLMAC@?$AAs?$AAv?$AA?9?$AAf?$AAi?$AA?$AA@ 0000000180029d28     libucrt:lcidtoname_downlevel.obj
 0002:00005d38       ??_C@_1M@MPJEJAJC@?$AAs?$AAv?$AA?9?$AAs?$AAe?$AA?$AA@ 0000000180029d38     libucrt:lcidtoname_downlevel.obj
 0002:00005d48       ??_C@_1M@MPNDHLFK@?$AAs?$AAw?$AA?9?$AAk?$AAe?$AA?$AA@ 0000000180029d48     libucrt:lcidtoname_downlevel.obj
 0002:00005d58       ??_C@_1O@KOHBJJI@?$AAs?$AAy?$AAr?$AA?9?$AAs?$AAy?$AA?$AA@ 0000000180029d58     libucrt:lcidtoname_downlevel.obj
 0002:00005d68       ??_C@_1M@LDCEFHA@?$AAt?$AAa?$AA?9?$AAi?$AAn?$AA?$AA@ 0000000180029d68     libucrt:lcidtoname_downlevel.obj
 0002:00005d78       ??_C@_1M@CNJOFAK@?$AAt?$AAe?$AA?9?$AAi?$AAn?$AA?$AA@ 0000000180029d78     libucrt:lcidtoname_downlevel.obj
 0002:00005d88       ??_C@_1M@GNAECACD@?$AAt?$AAh?$AA?9?$AAt?$AAh?$AA?$AA@ 0000000180029d88     libucrt:lcidtoname_downlevel.obj
 0002:00005d98       ??_C@_1M@CHBIHOJO@?$AAt?$AAn?$AA?9?$AAz?$AAa?$AA?$AA@ 0000000180029d98     libucrt:lcidtoname_downlevel.obj
 0002:00005da8       ??_C@_1M@GCCMIGPJ@?$AAt?$AAr?$AA?9?$AAt?$AAr?$AA?$AA@ 0000000180029da8     libucrt:lcidtoname_downlevel.obj
 0002:00005db8       ??_C@_1M@CELMCNBK@?$AAt?$AAt?$AA?9?$AAr?$AAu?$AA?$AA@ 0000000180029db8     libucrt:lcidtoname_downlevel.obj
 0002:00005dc8       ??_C@_1M@KLMCELGA@?$AAu?$AAk?$AA?9?$AAu?$AAa?$AA?$AA@ 0000000180029dc8     libucrt:lcidtoname_downlevel.obj
 0002:00005dd8       ??_C@_1M@EPAJJAJF@?$AAu?$AAr?$AA?9?$AAp?$AAk?$AA?$AA@ 0000000180029dd8     libucrt:lcidtoname_downlevel.obj
 0002:00005de8       ??_C@_1BG@GEGPMCDJ@?$AAu?$AAz?$AA?9?$AAu?$AAz?$AA?9?$AAc?$AAy?$AAr?$AAl?$AA?$AA@ 0000000180029de8     libucrt:lcidtoname_downlevel.obj
 0002:00005e00       ??_C@_1BG@EGGKJILM@?$AAu?$AAz?$AA?9?$AAu?$AAz?$AA?9?$AAl?$AAa?$AAt?$AAn?$AA?$AA@ 0000000180029e00     libucrt:lcidtoname_downlevel.obj
 0002:00005e18       ??_C@_1M@GFOCLFF@?$AAv?$AAi?$AA?9?$AAv?$AAn?$AA?$AA@ 0000000180029e18     libucrt:lcidtoname_downlevel.obj
 0002:00005e28       ??_C@_1M@CPAMEDFI@?$AAx?$AAh?$AA?9?$AAz?$AAa?$AA?$AA@ 0000000180029e28     libucrt:lcidtoname_downlevel.obj
 0002:00005e38       ??_C@_1O@EBKIFIGN@?$AAz?$AAh?$AA?9?$AAc?$AAh?$AAs?$AA?$AA@ 0000000180029e38     libucrt:lcidtoname_downlevel.obj
 0002:00005e48       ??_C@_1O@NMHPGANE@?$AAz?$AAh?$AA?9?$AAc?$AAh?$AAt?$AA?$AA@ 0000000180029e48     libucrt:lcidtoname_downlevel.obj
 0002:00005e58       ??_C@_1M@LPINJOMC@?$AAz?$AAh?$AA?9?$AAc?$AAn?$AA?$AA@ 0000000180029e58     libucrt:lcidtoname_downlevel.obj
 0002:00005e68       ??_C@_1M@OCJEJODD@?$AAz?$AAh?$AA?9?$AAh?$AAk?$AA?$AA@ 0000000180029e68     libucrt:lcidtoname_downlevel.obj
 0002:00005e78       ??_C@_1M@DNDLJINH@?$AAz?$AAh?$AA?9?$AAm?$AAo?$AA?$AA@ 0000000180029e78     libucrt:lcidtoname_downlevel.obj
 0002:00005e88       ??_C@_1M@MBFDNDND@?$AAz?$AAh?$AA?9?$AAs?$AAg?$AA?$AA@ 0000000180029e88     libucrt:lcidtoname_downlevel.obj
 0002:00005e98       ??_C@_1M@IMEPLEPE@?$AAz?$AAh?$AA?9?$AAt?$AAw?$AA?$AA@ 0000000180029e98     libucrt:lcidtoname_downlevel.obj
 0002:00005ea8       ??_C@_1M@BBGHNHJP@?$AAz?$AAu?$AA?9?$AAz?$AAa?$AA?$AA@ 0000000180029ea8     libucrt:lcidtoname_downlevel.obj
 0002:00005ec0       ?large_power_data@?1??multiply_by_power_of_ten@__crt_strtox@@YA_NAEAUbig_integer@2@I@Z@4QBIB 0000000180029ec0     libucrt:cfout.obj
 0002:000067d0       ?large_power_indices@?1??multiply_by_power_of_ten@__crt_strtox@@YA_NAEAUbig_integer@2@I@Z@4QBUunpack_index@?1??12@YA_N0I@Z@B 000000018002a7d0     libucrt:cfout.obj
 0002:00006868       ?small_powers_of_ten@?6??multiply_by_power_of_ten@__crt_strtox@@YA_NAEAUbig_integer@2@I@Z@4QBIB 000000018002a868     libucrt:cfout.obj
 0002:0000688c       ??_C@_01GBGANLPD@0?$AA@    000000018002a88c     libucrt:cfout.obj
 0002:00006890       ??_C@_05DNEBIAHO@1?$CDINF?$AA@ 000000018002a890     libucrt:cfout.obj
 0002:00006898       ??_C@_06IMKFLFPG@1?$CDQNAN?$AA@ 000000018002a898     libucrt:cfout.obj
 0002:000068a0       ??_C@_06PGGFOGJG@1?$CDSNAN?$AA@ 000000018002a8a0     libucrt:cfout.obj
 0002:000068a8       ??_C@_05PHHOCPM@1?$CDIND?$AA@ 000000018002a8a8     libucrt:cfout.obj
 0002:00006b00       ??_C@_1BA@BALFACEM@?$AAC?$AAO?$AAN?$AAO?$AAU?$AAT?$AA$?$AA?$AA@ 000000018002ab00     libucrt:initcon.obj
 0002:00006b10       __log10_256_lead           000000018002ab10     libucrt:log10_256_lead_tail_table.obj
 0002:00007320       __log10_256_tail           000000018002b320     libucrt:log10_256_lead_tail_table.obj
 0002:00007b30       __log_F_inv_qword          000000018002bb30     libucrt:log_f_inv_qword_table.obj
 0002:00008340       ??_C@_05HGHHAHAP@log10?$AA@ 000000018002c340     libucrt:log_special.obj
 0002:00008360       ??_C@_1BK@DBDEIDLH@?$AAK?$AAE?$AAR?$AAN?$AAE?$AAL?$AA3?$AA2?$AA?4?$AAD?$AAL?$AAL?$AA?$AA@ 000000018002c360     DelayImp:delayhlp.obj
 0002:00008380       ??_C@_0BI@OMNLIJDB@AcquireSRWLockExclusive?$AA@ 000000018002c380     DelayImp:delayhlp.obj
 0002:00008398       ??_C@_0BI@HMIEPCNJ@ReleaseSRWLockExclusive?$AA@ 000000018002c398     DelayImp:delayhlp.obj
 0002:000083b0       __pfnDliFailureHook2       000000018002c3b0     DelayImp:delayhk1.obj
 0002:000083c0       _load_config_used          000000018002c3c0     LIBCMT:loadcfg.obj
 0002:00008458       ??_C@_1DG@OKCGPKIB@?$AAp?$AAe?$AAr?$AAs?$AAi?$AAs?$AAt?$AAe?$AAn?$AAt?$AA?$CI?$AA?$CJ?$AA?4?$AAI?$AAs?$AAN?$AAe?$AAa?$AAr?$AAD?$AAe?$AAa?$AAt?$AAh?$AA?$CI?$AA?$CJ?$AA?$AA@ 000000018002c458     odbc.obj
 0002:00008490       ??_C@_1CO@EGNPJLKI@?$AAp?$AAe?$AAr?$AAs?$AAi?$AAs?$AAt?$AAe?$AAn?$AAt?$AA?$CI?$AA?$CJ?$AA?4?$AAI?$AAs?$AAE?$AAm?$AAp?$AAt?$AAy?$AA?$CI?$AA?$CJ?$AA?$AA@ 000000018002c490     odbc.obj
 0002:000084c0       ??_C@_1DA@FBGAEOIO@?$AA?$CB?$AAp?$AAe?$AAr?$AAs?$AAi?$AAs?$AAt?$AAe?$AAn?$AAt?$AA?$CI?$AA?$CJ?$AA?4?$AAI?$AAs?$AAE?$AAm?$AAp?$AAt?$AAy?$AA?$CI?$AA?$CJ?$AA?$AA@ 000000018002c4c0     odbc.obj
 0002:000084f0       ??_C@_1CO@JCKLEFMA@?$AA?$CB?$AAp?$AAe?$AAr?$AAs?$AAi?$AAs?$AAt?$AAe?$AAn?$AAt?$AA?$CI?$AA?$CJ?$AA?4?$AAI?$AAs?$AAW?$AAe?$AAa?$AAk?$AA?$CI?$AA?$CJ?$AA?$AA@ 000000018002c4f0     odbc.obj
 0002:00008520       ??_C@_1BE@GMLLOIPJ@?$AAr?$AAe?$AAf?$AAs?$AA_?$AA?5?$AA?$DO?$AA?5?$AA0?$AA?$AA@ 000000018002c520     odbc.obj
 0002:00008538       ??_C@_1CC@GBFLAAPF@?$AAw?$AAr?$AAa?$AAp?$AA?9?$AA?$DO?$AAr?$AAe?$AAf?$AAs?$AA_?$AA?5?$AA?$DN?$AA?$DN?$AA?5?$AA0?$AA?$AA@ 000000018002c538     odbc.obj
 0002:00008560       ??_C@_1IC@GDBLHJH@?$AAc?$AA?3?$AA?2?$AAu?$AAs?$AAe?$AAr?$AAs?$AA?2?$AAk?$AAu?$AAj?$AA0?$AA9?$AA?2?$AAd?$AAe?$AAs?$AAk?$AAt?$AAo?$AAp?$AA?2?$AAp?$AAl?$AAe?$AAa?$AAs?$AAe?$AA?2?$AAn?$AAo@ 000000018002c560     odbc.obj
 0002:000085f0       ??_C@_1EC@MGGLMBLC@?$AAo?$AAb?$AAj?$AAe?$AAc?$AAt?$AA?9?$AA?$DO?$AAI?$AAn?$AAt?$AAe?$AAr?$AAn?$AAa?$AAl?$AAF?$AAi?$AAe?$AAl?$AAd?$AAC?$AAo?$AAu?$AAn?$AAt?$AA?$CI?$AA?$CJ?$AA?5?$AA?$DO?$AA?5?$AA0@ 000000018002c5f0     odbc.obj
 0002:00008638       ??_C@_1DI@ELDBKNAK@?$AAw?$AAr?$AAa?$AAp?$AA?9?$AA?$DO?$AAh?$AAa?$AAn?$AAd?$AAl?$AAe?$AA_?$AA?4?$AAI?$AAs?$AAN?$AAe?$AAa?$AAr?$AAD?$AAe?$AAa?$AAt?$AAh?$AA?$CI?$AA?$CJ?$AA?$AA@ 000000018002c638     odbc.obj
 0002:00008670       ??_C@_06OOPIFAJ@Sunday?$AA@ 000000018002c670     odbc.obj
 0002:00008678       ??_C@_06JLEDEDGH@Monday?$AA@ 000000018002c678     odbc.obj
 0002:00008680       ??_C@_07BAAGCFCM@Tuesday?$AA@ 000000018002c680     odbc.obj
 0002:00008688       ??_C@_09DLIGFAKA@Wednesday?$AA@ 000000018002c688     odbc.obj
 0002:00008698       ??_C@_08HACCIKIA@Thursday?$AA@ 000000018002c698     odbc.obj
 0002:000086a4       ??_C@_06JECMNKMI@Friday?$AA@ 000000018002c6a4     odbc.obj
 0002:000086b0       ??_C@_08INBOOONO@Saturday?$AA@ 000000018002c6b0     odbc.obj
 0002:000086bc       ??_C@_03KOEHGMDN@Sun?$AA@  000000018002c6bc     odbc.obj
 0002:000086c0       ??_C@_03PDAGKDH@Mon?$AA@   000000018002c6c0     odbc.obj
 0002:000086c4       ??_C@_03NAGEINEP@Tue?$AA@  000000018002c6c4     odbc.obj
 0002:000086c8       ??_C@_03MHOMLAJA@Wed?$AA@  000000018002c6c8     odbc.obj
 0002:000086cc       ??_C@_03IOFIKPDN@Thu?$AA@  000000018002c6cc     odbc.obj
 0002:000086d0       ??_C@_03IDIOELNC@Fri?$AA@  000000018002c6d0     odbc.obj
 0002:000086d4       ??_C@_03FEFJNEK@Sat?$AA@   000000018002c6d4     odbc.obj
 0002:000086d8       ??_C@_07CGJPFGJA@January?$AA@ 000000018002c6d8     odbc.obj
 0002:000086e0       ??_C@_08GNJGEPFN@February?$AA@ 000000018002c6e0     odbc.obj
 0002:000086ec       ??_C@_05HPCKOFNC@March?$AA@ 000000018002c6ec     odbc.obj
 0002:000086f4       ??_C@_05DMJDNLEJ@April?$AA@ 000000018002c6f4     odbc.obj
 0002:000086fc       ??_C@_03CNMDKL@May?$AA@    000000018002c6fc     odbc.obj
 0002:00008700       ??_C@_04CNLMGBGM@June?$AA@ 000000018002c700     odbc.obj
 0002:00008708       ??_C@_04MIEPOIFP@July?$AA@ 000000018002c708     odbc.obj
 0002:00008710       ??_C@_06LBBHFDDG@August?$AA@ 000000018002c710     odbc.obj
 0002:00008718       ??_C@_09BHHEALKD@September?$AA@ 000000018002c718     odbc.obj
 0002:00008728       ??_C@_07JJNFCEND@October?$AA@ 000000018002c728     odbc.obj
 0002:00008730       ??_C@_08HCHEGEOA@November?$AA@ 000000018002c730     odbc.obj
 0002:00008740       ??_C@_08EDHMEBNP@December?$AA@ 000000018002c740     odbc.obj
 0002:0000874c       ??_C@_03JIHJHPIE@Jan?$AA@  000000018002c74c     odbc.obj
 0002:00008750       ??_C@_03HJBDCHOM@Feb?$AA@  000000018002c750     odbc.obj
 0002:00008754       ??_C@_03ODNJBKGA@Mar?$AA@  000000018002c754     odbc.obj
 0002:00008758       ??_C@_03LEOLGMJP@Apr?$AA@  000000018002c758     odbc.obj
 0002:0000875c       ??_C@_03IDFGHECI@Jun?$AA@  000000018002c75c     odbc.obj
 0002:00008760       ??_C@_03LBGABGKK@Jul?$AA@  000000018002c760     odbc.obj
 0002:00008764       ??_C@_03IFJFEIGA@Aug?$AA@  000000018002c764     odbc.obj
 0002:00008768       ??_C@_03GGCAPAJC@Sep?$AA@  000000018002c768     odbc.obj
 0002:0000876c       ??_C@_03BMAOKBAD@Oct?$AA@  000000018002c76c     odbc.obj
 0002:00008770       ??_C@_03JPJOFNIA@Nov?$AA@  000000018002c770     odbc.obj
 0002:00008774       ??_C@_03MKABNOCG@Dec?$AA@  000000018002c774     odbc.obj
 0002:00008778       ??_C@_02DEDBPAFC@AM?$AA@   000000018002c778     odbc.obj
 0002:0000877c       ??_C@_02CJNFDJBF@PM?$AA@   000000018002c77c     odbc.obj
 0002:00008780       ??_C@_04FPECENHI@ODBC?$AA@ 000000018002c780     odbc.obj
 0002:00008788       ??_C@_09LEJMBPED@SQL_CLOSE?$AA@ 000000018002c788     odbc.obj
 0002:00008798       ??_C@_08LINMGOJM@SQL_DROP?$AA@ 000000018002c798     odbc.obj
 0002:000087a8       ??_C@_0L@PJNDJCGA@SQL_UNBIND?$AA@ 000000018002c7a8     odbc.obj
 0002:000087b8       ??_C@_0BB@CDCCBKMK@SQL_RESET_PARAMS?$AA@ 000000018002c7b8     odbc.obj
 0002:000087d0       ??_C@_0M@NCEELEFD@SQL_DESTROY?$AA@ 000000018002c7d0     odbc.obj
 0002:000087e0       ??_C@_0M@HJJMEEHK@FETCH_ARRAY?$AA@ 000000018002c7e0     odbc.obj
 0002:000087f0       ??_C@_0O@HCDHJHDA@SQL_USER_NAME?$AA@ 000000018002c7f0     odbc.obj
 0002:00008800       ??_C@_0N@PDNEIIEC@FETCH_OBJECT?$AA@ 000000018002c800     odbc.obj
 0002:00008810       ??_C@_0BB@HPJPOOCH@createConnection?$AA@ 000000018002c810     odbc.obj
 0002:00008828       ??_C@_0BF@MNOHBEBG@createConnectionSync?$AA@ 000000018002c828     odbc.obj
 0002:00008840       ??_C@_0BC@LGPAMIPH@?$CFY?9?$CFm?9?$CFd?5?$CFH?3?$CFM?3?$CFS?$AA@ 000000018002c840     odbc.obj
 0002:00008858       ??_C@_1CA@OKAPGPID@?$AA?4?$AA?4?$AA?2?$AAs?$AAr?$AAc?$AA?2?$AAo?$AAd?$AAb?$AAc?$AA?4?$AAc?$AAp?$AAp?$AA?$AA@ 000000018002c858     odbc.obj
 0002:00008878       ??_C@_1DE@KAAHJLHA@?$AAr?$AAe?$AAt?$AA?5?$AA?$CB?$AA?$DN?$AA?5?$AAS?$AAQ?$AAL?$AA_?$AAI?$AAN?$AAV?$AAA?$AAL?$AAI?$AAD?$AA_?$AAH?$AAA?$AAN?$AAD?$AAL?$AAE?$AA?$AA@ 000000018002c878     odbc.obj
 0002:000088b0       ??_C@_0CK@JANBMMH@?$FLnode?9odbc?$FN?5Error?5in?5ODBC?3?3GetCo@ 000000018002c8b0     odbc.obj
 0002:000088e0       ??_C@_0BG@HMGGBHBF@?$FLnode?9odbc?$FN?5SQL_ERROR?$AA@ 000000018002c8e0     odbc.obj
 0002:000088f8       ??_C@_06EOMHCNPI@errors?$AA@ 000000018002c8f8     odbc.obj
 0002:00008900       ??_C@_05KKCIMGE@error?$AA@ 000000018002c900     odbc.obj
 0002:00008908       ??_C@_07ONPBMBOP@message?$AA@ 000000018002c908     odbc.obj
 0002:00008910       ??_C@_05HDBKIDE@state?$AA@ 000000018002c910     odbc.obj
 0002:00008920       ??_C@_0EL@MKNIHBBN@?$FLnode?9odbc?$FN?5An?5error?5occurred?5bu@ 000000018002c920     odbc.obj
 0002:00008970       ??_C@_0BA@IAHOMENL@?4?4?2src?2odbc?4cpp?$AA@ 000000018002c970     odbc.obj
 0002:00008980       ??_C@_0O@IMILNIJO@odbc_bindings?$AA@ 000000018002c980     odbc.obj
 0002:00008990       ??_C@_1CE@LNAGEONJ@?$AA?$CB?$AAo?$AAb?$AAj?$AAe?$AAc?$AAt?$AA?4?$AAI?$AAs?$AAE?$AAm?$AAp?$AAt?$AAy?$AA?$CI?$AA?$CJ?$AA?$AA@ 000000018002c990     odbc.obj
 0002:000089b8       ??_7ObjectWrap@Nan@@6B@    000000018002c9b8     odbc.obj
 0002:000089d0       ??_7ODBC@@6B@              000000018002c9d0     odbc.obj
 0002:000089e8       ??_C@_00CNPNBAHC@?$AA@     000000018002c9e8     odbc_connection.obj
 0002:000089ec       ??_C@_03DLEKAJFN@sql?$AA@  000000018002c9ec     odbc_connection.obj
 0002:000089f0       ??_C@_06JMGHNNK@params?$AA@ 000000018002c9f0     odbc_connection.obj
 0002:000089f8       ??_C@_09EJCMIBE@noResults?$AA@ 000000018002c9f8     odbc_connection.obj
 0002:00008a08       ??_C@_0P@OPIHJPFK@ODBCConnection?$AA@ 000000018002ca08     odbc_connection.obj
 0002:00008a18       ??_C@_09JGOMOAGJ@connected?$AA@ 000000018002ca18     odbc_connection.obj
 0002:00008a28       ??_C@_0P@HCJKHHNK@connectTimeout?$AA@ 000000018002ca28     odbc_connection.obj
 0002:00008a38       ??_C@_0N@KOGODODJ@loginTimeout?$AA@ 000000018002ca38     odbc_connection.obj
 0002:00008a48       ??_C@_04PMOCAHAA@open?$AA@ 000000018002ca48     odbc_connection.obj
 0002:00008a50       ??_C@_08LIBBLNJP@openSync?$AA@ 000000018002ca50     odbc_connection.obj
 0002:00008a5c       ??_C@_05LBOHBHFK@close?$AA@ 000000018002ca5c     odbc_connection.obj
 0002:00008a68       ??_C@_09HFJNDIEB@closeSync?$AA@ 000000018002ca68     odbc_connection.obj
 0002:00008a78       ??_C@_0BA@LHLAAPPP@createStatement?$AA@ 000000018002ca78     odbc_connection.obj
 0002:00008a88       ??_C@_0BE@BIEENBI@createStatementSync?$AA@ 000000018002ca88     odbc_connection.obj
 0002:00008a9c       ??_C@_05BKABJGDH@query?$AA@ 000000018002ca9c     odbc_connection.obj
 0002:00008aa8       ??_C@_09BFAGEICC@querySync?$AA@ 000000018002caa8     odbc_connection.obj
 0002:00008ab8       ??_C@_0BB@JNDAFCDJ@beginTransaction?$AA@ 000000018002cab8     odbc_connection.obj
 0002:00008ad0       ??_C@_0BF@NGPOBALM@beginTransactionSync?$AA@ 000000018002cad0     odbc_connection.obj
 0002:00008ae8       ??_C@_0P@JANJEKEM@endTransaction?$AA@ 000000018002cae8     odbc_connection.obj
 0002:00008af8       ??_C@_0BD@GJCHIGMC@endTransactionSync?$AA@ 000000018002caf8     odbc_connection.obj
 0002:00008b10       ??_C@_0M@MFEIOEEJ@getInfoSync?$AA@ 000000018002cb10     odbc_connection.obj
 0002:00008b20       ??_C@_07HIFEPIJN@columns?$AA@ 000000018002cb20     odbc_connection.obj
 0002:00008b28       ??_C@_06GBBAEHCO@tables?$AA@ 000000018002cb28     odbc_connection.obj
 0002:00008b30       ??_C@_0BD@NGADPPFN@Argument?50?5invalid?$AA@ 000000018002cb30     odbc_connection.obj
 0002:00008b48       ??_C@_0BD@DJMBJEGD@Argument?51?5invalid?$AA@ 000000018002cb48     odbc_connection.obj
 0002:00008b60       ??_C@_0BM@MEFJKJPM@Argument?50?5must?5be?5a?5string?$AA@ 000000018002cb60     odbc_connection.obj
 0002:00008b80       ??_C@_0BO@NBLLBCGC@Argument?51?5must?5be?5a?5function?$AA@ 000000018002cb80     odbc_connection.obj
 0002:00008ba0       ??_C@_0BO@EOGBJBPM@Argument?50?5must?5be?5a?5function?$AA@ 000000018002cba0     odbc_connection.obj
 0002:00008bc0       ??_C@_0BH@LAGFFHHO@Error?5closing?5database?$AA@ 000000018002cbc0     odbc_connection.obj
 0002:00008bd8       ??_C@_0BO@KMGKNADK@Argument?50?5must?5be?5an?5String?4?$AA@ 000000018002cbd8     odbc_connection.obj
 0002:00008bf8       ??_C@_0BN@LEOGELAO@Argument?51?5must?5be?5an?5Array?4?$AA@ 000000018002cbf8     odbc_connection.obj
 0002:00008c18       ??_C@_0BP@NOEPBMNK@Argument?52?5must?5be?5a?5Function?4?$AA@ 000000018002cc18     odbc_connection.obj
 0002:00008c38       ??_C@_0DI@IELJPIMJ@ODBCConnection?3?3Query?$CI?$CJ?3?5Argumen@ 000000018002cc38     odbc_connection.obj
 0002:00008c70       ??_C@_0ED@KKNHHINC@ODBCConnection?3?3Query?$CI?$CJ?3?5Argumen@ 000000018002cc70     odbc_connection.obj
 0002:00008cb8       ??_C@_0DM@DCCPEIBP@ODBCConnection?3?3Query?$CI?$CJ?3?5Require@ 000000018002ccb8     odbc_connection.obj
 0002:00008cf8       ??_C@_0DL@CFGBOCNC@ODBCConnection?3?3QuerySync?$CI?$CJ?3?5Arg@ 000000018002ccf8     odbc_connection.obj
 0002:00008d38       ??_C@_0DK@GMPPEDJH@ODBCConnection?3?3QuerySync?$CI?$CJ?3?5Arg@ 000000018002cd38     odbc_connection.obj
 0002:00008d80       ??_C@_0EH@NFFOFJDA@ODBCConnection?3?3QuerySync?$CI?$CJ?3?5Arg@ 000000018002cd80     odbc_connection.obj
 0002:00008dc8       ??_C@_0DP@PNKPKIIE@ODBCConnection?3?3QuerySync?$CI?$CJ?3?5Req@ 000000018002cdc8     odbc_connection.obj
 0002:00008e08       ??_C@_0CP@FEILBCLF@?$FLnode?9odbc?$FN?5Error?5in?5ODBCConnect@ 000000018002ce08     odbc_connection.obj
 0002:00008e38       ??_C@_0DM@GKFPMKJI@ODBCConnection?3?3GetInfoSync?$CI?$CJ?3?5A@ 000000018002ce38     odbc_connection.obj
 0002:00008e78       ??_C@_0DE@IICJILCO@ODBCConnection?3?3GetInfoSync?$CI?$CJ?3?5R@ 000000018002ce78     odbc_connection.obj
 0002:00008eb0       ??_C@_0EN@CDHLDCNO@ODBCConnection?3?3GetInfoSync?$CI?$CJ?3?5T@ 000000018002ceb0     odbc_connection.obj
 0002:00008f00       ??_C@_0CE@EIOEPLHB@Argument?50?5must?5be?5a?5string?5or?5n@ 000000018002cf00     odbc_connection.obj
 0002:00008f28       ??_C@_0CE@CGGIOADA@Argument?51?5must?5be?5a?5string?5or?5n@ 000000018002cf28     odbc_connection.obj
 0002:00008f50       ??_C@_0CE@JFPMMNPD@Argument?52?5must?5be?5a?5string?5or?5n@ 000000018002cf50     odbc_connection.obj
 0002:00008f78       ??_C@_0CE@PLHANGLC@Argument?53?5must?5be?5a?5string?5or?5n@ 000000018002cf78     odbc_connection.obj
 0002:00008fa0       ??_C@_0CB@PEBEJMFP@Could?5not?5allocate?5enough?5memory@ 000000018002cfa0     odbc_connection.obj
 0002:00008fc4       ??_C@_04MLLLIHIP@null?$AA@ 000000018002cfc4     odbc_connection.obj
 0002:00008fd0       ??_C@_0BN@DOFNDNLA@Argument?50?5must?5be?5a?5boolean?$AA@ 000000018002cfd0     odbc_connection.obj
 0002:00008ff0       ??_7ODBCConnection@@6B@    000000018002cff0     odbc_connection.obj
 0002:00009008       ??_C@_0O@BANMODPA@ODBCStatement?$AA@ 000000018002d008     odbc_statement.obj
 0002:00009018       ??_C@_07EMGJIMLB@execute?$AA@ 000000018002d018     odbc_statement.obj
 0002:00009020       ??_C@_0M@ODKJJCAN@executeSync?$AA@ 000000018002d020     odbc_statement.obj
 0002:00009030       ??_C@_0O@ILLJCDID@executeDirect?$AA@ 000000018002d030     odbc_statement.obj
 0002:00009040       ??_C@_0BC@OPJHCKHG@executeDirectSync?$AA@ 000000018002d040     odbc_statement.obj
 0002:00009058       ??_C@_0BA@HAJACNAC@executeNonQuery?$AA@ 000000018002d058     odbc_statement.obj
 0002:00009068       ??_C@_0BE@NOMFGCFN@executeNonQuerySync?$AA@ 000000018002d068     odbc_statement.obj
 0002:00009080       ??_C@_07CAPELNJI@prepare?$AA@ 000000018002d080     odbc_statement.obj
 0002:00009088       ??_C@_0M@JLNBCEDK@prepareSync?$AA@ 000000018002d088     odbc_statement.obj
 0002:00009094       ??_C@_04NPNJNMMP@bind?$AA@ 000000018002d094     odbc_statement.obj
 0002:000090a0       ??_C@_08IJDGAHFE@bindSync?$AA@ 000000018002d0a0     odbc_statement.obj
 0002:000090b0       ??_C@_0BD@NCPGCPGA@Argument?52?5invalid?$AA@ 000000018002d0b0     odbc_statement.obj
 0002:000090c8       ??_C@_0DA@POAIOCPE@?$FLnode?9odbc?$FN?5Error?5in?5ODBCStateme@ 000000018002d0c8     odbc_statement.obj
 0002:000090f8       ??_C@_0DG@MFPBMMCL@?$FLnode?9odbc?$FN?5Error?5in?5ODBCStateme@ 000000018002d0f8     odbc_statement.obj
 0002:00009130       ??_C@_0DA@IGHAFEMD@?$FLnode?9odbc?$FN?5Error?5in?5ODBCStateme@ 000000018002d130     odbc_statement.obj
 0002:00009160       ??_C@_0BM@DBCDDEDD@Argument?51?5must?5be?5an?5Array?$AA@ 000000018002d160     odbc_statement.obj
 0002:00009180       ??_C@_0CN@GNHIOAJP@?$FLnode?9odbc?$FN?5Error?5in?5ODBCStateme@ 000000018002d180     odbc_statement.obj
 0002:000091b0       ??_C@_0BO@OCNLKP@Argument?50?5must?5be?5an?5integer?$AA@ 000000018002d1b0     odbc_statement.obj
 0002:000091d0       ??_7ODBCStatement@@6B@     000000018002d1d0     odbc_statement.obj
 0002:000091e8       ??_C@_0L@BFJBMIBP@ODBCResult?$AA@ 000000018002d1e8     odbc_result.obj
 0002:000091f8       ??_C@_08DKKMCBFH@fetchAll?$AA@ 000000018002d1f8     odbc_result.obj
 0002:00009204       ??_C@_05MCKKOJDL@fetch?$AA@ 000000018002d204     odbc_result.obj
 0002:00009210       ??_C@_0BA@MGFBPKH@moreResultsSync?$AA@ 000000018002d210     odbc_result.obj
 0002:00009220       ??_C@_09MFIGOHDD@fetchSync?$AA@ 000000018002d220     odbc_result.obj
 0002:00009230       ??_C@_0N@MOPGLFNI@fetchAllSync?$AA@ 000000018002d230     odbc_result.obj
 0002:00009240       ??_C@_0BD@FMECNCB@getColumnNamesSync?$AA@ 000000018002d240     odbc_result.obj
 0002:00009258       ??_C@_0BA@INEPKBFD@getRowCountSync?$AA@ 000000018002d258     odbc_result.obj
 0002:00009268       ??_C@_09DEOJOEMD@fetchMode?$AA@ 000000018002d268     odbc_result.obj
 0002:00009278       ??_C@_0BD@DNDEEEFO@Argument?53?5invalid?$AA@ 000000018002d278     odbc_result.obj
 0002:00009290       ??_C@_0GD@ECCDDFKE@ODBCResult?3?3Fetch?$CI?$CJ?3?51?5or?52?5argu@ 000000018002d290     odbc_result.obj
 0002:000092f8       ??_C@_0CD@GNDHJDFP@Error?5in?5ODBCResult?3?3UV_AfterFet@ 000000018002d2f8     odbc_result.obj
 0002:00009320       ??_C@_0GG@LGJDGLPO@ODBCResult?3?3FetchAll?$CI?$CJ?3?51?5or?52?5a@ 000000018002d320     odbc_result.obj
 0002:00009388       ??_C@_0DC@JHPENHDI@?$FLnode?9odbc?$FN?5Error?5in?5ODBCResult?3@ 000000018002d388     odbc_result.obj
 0002:000093c0       ??_C@_0GC@OAJCCLNG@?$FLnode?9odbc?$FN?5Error?5in?5ODBCResult?3@ 000000018002d3c0     odbc_result.obj
 0002:00009428       ??_C@_0DB@DLCDGFND@?$FLnode?9odbc?$FN?5Error?5in?5ODBCResult?3@ 000000018002d428     odbc_result.obj
 0002:00009460       ??_7ODBCResult@@6B@        000000018002d460     odbc_result.obj
 0002:00009478       ??_C@_05DMCIJNLO@?$CFx?5?$CFX?$AA@ 000000018002d478     strptime.obj
 0002:00009480       ??_C@_08KAHCGMHG@?$CFm?1?$CFd?1?$CFy?$AA@ 000000018002d480     strptime.obj
 0002:0000948c       ??_C@_05JFBIHENH@?$CFH?3?$CFM?$AA@ 000000018002d48c     strptime.obj
 0002:00009498       ??_C@_0M@DJNIDJHC@?$CFI?3?$CFM?3?$CFS?5?$CFp?$AA@ 000000018002d498     strptime.obj
 0002:000094a8       ??_C@_08OAHPJFNN@?$CFH?3?$CFM?3?$CFS?$AA@ 000000018002d4a8     strptime.obj
 0002:00009558       __pfnDliNotifyHook2        000000018002d558     win_delay_load_hook.obj
 0002:000095f8       ??_C@_08HCOMDCCD@iojs?4exe?$AA@ 000000018002d5f8     win_delay_load_hook.obj
 0002:00009608       ??_C@_08JDDNMFDB@node?4exe?$AA@ 000000018002d608     win_delay_load_hook.obj
 0002:00009618       __real@3ff0000000000000    000000018002d618     odbc.obj
 0002:00009620       __real@4000000000000000    000000018002d620     odbc.obj
 0002:00009628       __real@4008000000000000    000000018002d628     odbc.obj
 0002:00009630       __real@4010000000000000    000000018002d630     odbc.obj
 0002:00009638       __real@4047800000000000    000000018002d638     odbc.obj
 0002:00009640       __real@408f400000000000    000000018002d640     odbc.obj
 0002:00009648       __real@40c3878000000000    000000018002d648     odbc.obj
 0002:000096a8       ??_R4exception@std@@6B@    000000018002d6a8     LIBCMT:throw_bad_alloc.obj
 0002:000096d0       ??_R3exception@std@@8      000000018002d6d0     LIBCMT:throw_bad_alloc.obj
 0002:000096e8       ??_R2exception@std@@8      000000018002d6e8     LIBCMT:throw_bad_alloc.obj
 0002:000096f8       ??_R1A@?0A@EA@exception@std@@8 000000018002d6f8     LIBCMT:throw_bad_alloc.obj
 0002:00009720       ??_R4bad_alloc@std@@6B@    000000018002d720     LIBCMT:throw_bad_alloc.obj
 0002:00009748       ??_R3bad_alloc@std@@8      000000018002d748     LIBCMT:throw_bad_alloc.obj
 0002:00009760       ??_R2bad_alloc@std@@8      000000018002d760     LIBCMT:throw_bad_alloc.obj
 0002:00009778       ??_R1A@?0A@EA@bad_alloc@std@@8 000000018002d778     LIBCMT:throw_bad_alloc.obj
 0002:000097a0       ??_R4bad_array_new_length@std@@6B@ 000000018002d7a0     LIBCMT:throw_bad_alloc.obj
 0002:000097c8       ??_R3bad_array_new_length@std@@8 000000018002d7c8     LIBCMT:throw_bad_alloc.obj
 0002:000097e0       ??_R2bad_array_new_length@std@@8 000000018002d7e0     LIBCMT:throw_bad_alloc.obj
 0002:00009800       ??_R1A@?0A@EA@bad_array_new_length@std@@8 000000018002d800     LIBCMT:throw_bad_alloc.obj
 0002:00009828       ??_R4type_info@@6B@        000000018002d828     LIBCMT:std_type_info_static.obj
 0002:00009850       ??_R3type_info@@8          000000018002d850     LIBCMT:std_type_info_static.obj
 0002:00009868       ??_R2type_info@@8          000000018002d868     LIBCMT:std_type_info_static.obj
 0002:00009878       ??_R1A@?0A@EA@type_info@@8 000000018002d878     LIBCMT:std_type_info_static.obj
 0002:00009ca8       __rtc_iaa                  000000018002dca8     LIBCMT:_initsect_.obj
 0002:00009cb0       __rtc_izz                  000000018002dcb0     LIBCMT:_initsect_.obj
 0002:00009cb8       __rtc_taa                  000000018002dcb8     LIBCMT:_initsect_.obj
 0002:00009cc0       __rtc_tzz                  000000018002dcc0     LIBCMT:_initsect_.obj
 0002:0000bcd0       _TI2?AVbad_alloc@std@@     000000018002fcd0     LIBCMT:throw_bad_alloc.obj
 0002:0000bcf0       _CTA2?AVbad_alloc@std@@    000000018002fcf0     LIBCMT:throw_bad_alloc.obj
 0002:0000bd08       _CT??_R0?AVbad_alloc@std@@@8??0bad_alloc@std@@QEAA@AEBV01@@Z24 000000018002fd08     LIBCMT:throw_bad_alloc.obj
 0002:0000bd30       _CT??_R0?AVexception@std@@@8??0exception@std@@QEAA@AEBV01@@Z24 000000018002fd30     LIBCMT:throw_bad_alloc.obj
 0002:0000bd58       _TI3?AVbad_array_new_length@std@@ 000000018002fd58     LIBCMT:throw_bad_alloc.obj
 0002:0000bd78       _CTA3?AVbad_array_new_length@std@@ 000000018002fd78     LIBCMT:throw_bad_alloc.obj
 0002:0000bd98       _CT??_R0?AVbad_array_new_length@std@@@8??0bad_array_new_length@std@@QEAA@AEBV01@@Z24 000000018002fd98     LIBCMT:throw_bad_alloc.obj
 0002:0000bdbc       __DELAY_IMPORT_DESCRIPTOR_node_exe 000000018002fdbc     node:node.exe
 0002:0000bddc       __NULL_DELAY_IMPORT_DESCRIPTOR 000000018002fddc     node:node.exe
 0002:0000c0b8       \177node_NULL_THUNK_DATA_DLN 00000001800300b8     node:node.exe
 0002:0000d520       \177node_NULL_THUNK_DATA_DLB 0000000180031520     node:node.exe
 0002:0000d840       __IMPORT_DESCRIPTOR_KERNEL32 0000000180031840     kernel32:KERNEL32.dll
 0002:0000d854       __IMPORT_DESCRIPTOR_ODBC32 0000000180031854     odbc32:ODBC32.dll
 0002:0000d868       __NULL_IMPORT_DESCRIPTOR   0000000180031868     kernel32:KERNEL32.dll
 0003:00000000       __scrt_native_dllmain_reason 0000000180033000     LIBCMT:utility.obj
 0003:00000008       __security_cookie          0000000180033008     LIBCMT:gs_cookie.obj
 0003:00000010       __security_cookie_complement 0000000180033010     LIBCMT:gs_cookie.obj
 0003:00000018       __isa_available            0000000180033018     LIBCMT:_cpu_disp_.obj
 0003:0000001c       __isa_enabled              000000018003301c     LIBCMT:_cpu_disp_.obj
 0003:00000020       __memcpy_nt_iters          0000000180033020     LIBCMT:_cpu_disp_.obj
 0003:00000040       __abort_behavior           0000000180033040     libucrt:abort.obj
 0003:00000100       _iob                       0000000180033100     libucrt:_file.obj
 0003:00000208       _pwctype                   0000000180033208     libucrt:ctype.obj
 0003:00000220       __acrt_initial_locale_data 0000000180033220     libucrt:nlsdata.obj
 0003:00000378       __acrt_initial_locale_pointers 0000000180033378     libucrt:nlsdata.obj
 0003:00000388       __acrt_wide_c_locale_string 0000000180033388     libucrt:nlsdata.obj
 0003:00000390       __acrt_initial_multibyte_data 0000000180033390     libucrt:mbctype.obj
 0003:000005b8       __acrt_current_multibyte_data 00000001800335b8     libucrt:mbctype.obj
 0003:000006c0       _mbctype                   00000001800336c0     libucrt:mbctype.obj
 0003:000007d0       _mbcasemap                 00000001800337d0     libucrt:mbctype.obj
 0003:000008d0       __badioinfo                00000001800338d0     libucrt:ioinit.obj
 0003:00000910       __globallocalestatus       0000000180033910     libucrt:glstatus.obj
 0003:00000920       __acrt_lconv_c             0000000180033920     libucrt:localeconv.obj
 0003:000009b8       __acrt_lconv_static_decimal 00000001800339b8     libucrt:localeconv.obj
 0003:000009bc       __acrt_lconv_static_W_decimal 00000001800339bc     libucrt:localeconv.obj
 0003:000009c0       __dcrt_lowio_console_output_handle 00000001800339c0     libucrt:initcon.obj
 0003:000009e0       _fltused                   00000001800339e0     LIBCMT:fltused.obj
 0003:00000a30       ??_R0?AVbad_alloc@std@@@8  0000000180033a30     LIBCMT:throw_bad_alloc.obj
 0003:00000a58       ??_R0?AVexception@std@@@8  0000000180033a58     LIBCMT:throw_bad_alloc.obj
 0003:00000a80       ??_R0?AVbad_array_new_length@std@@@8 0000000180033a80     LIBCMT:throw_bad_alloc.obj
 0003:00000ab0       ??_R0?AVtype_info@@@8      0000000180033ab0     LIBCMT:std_type_info_static.obj
 0003:00000ad0       __imp_uv_mutex_unlock      0000000180033ad0     node:node.exe
 0003:00000ad8       __imp_uv_queue_work        0000000180033ad8     node:node.exe
 0003:00000ae0       __imp_?Global@Context@v8@@QEAA?AV?$Local@VObject@v8@@@2@XZ 0000000180033ae0     node:node.exe
 0003:00000ae8       __imp_?Value@External@v8@@QEBAPEAXXZ 0000000180033ae8     node:node.exe
 0003:00000af0       __imp_?New@External@v8@@SA?AV?$Local@VExternal@v8@@@2@PEAVIsolate@2@PEAX@Z 0000000180033af0     node:node.exe
 0003:00000af8       __imp_?New@Integer@v8@@SA?AV?$Local@VInteger@v8@@@2@PEAVIsolate@2@H@Z 0000000180033af8     node:node.exe
 0003:00000b00       __imp_?New@Signature@v8@@SA?AV?$Local@VSignature@v8@@@2@PEAVIsolate@2@V?$Local@VFunctionTemplate@v8@@@2@@Z 0000000180033b00     node:node.exe
 0003:00000b08       __imp_?ThrowException@Isolate@v8@@QEAA?AV?$Local@VValue@v8@@@2@V32@@Z 0000000180033b08     node:node.exe
 0003:00000b10       __imp_?GetCurrentContext@Isolate@v8@@QEAA?AV?$Local@VContext@v8@@@2@XZ 0000000180033b10     node:node.exe
 0003:00000b18       __imp_?GetCurrent@Isolate@v8@@SAPEAV12@XZ 0000000180033b18     node:node.exe
 0003:00000b20       __imp_?CreateHandle@HandleScope@v8@@KAPEAPEAVObject@internal@2@PEAVIsolate@42@PEAV342@@Z 0000000180033b20     node:node.exe
 0003:00000b28       __imp_?CreateHandle@HandleScope@v8@@CAPEAPEAVObject@internal@2@PEAVHeapObject@42@PEAV342@@Z 0000000180033b28     node:node.exe
 0003:00000b30       __imp_??1HandleScope@v8@@QEAA@XZ 0000000180033b30     node:node.exe
 0003:00000b38       __imp_??0HandleScope@v8@@QEAA@PEAVIsolate@1@@Z 0000000180033b38     node:node.exe
 0003:00000b40       __imp_?Set@Template@v8@@QEAAXV?$Local@VName@v8@@@2@V?$Local@VData@v8@@@2@W4PropertyAttribute@2@@Z 0000000180033b40     node:node.exe
 0003:00000b48       __imp_?Error@Exception@v8@@SA?AV?$Local@VValue@v8@@@2@V?$Local@VString@v8@@@2@@Z 0000000180033b48     node:node.exe
 0003:00000b50       __imp_?New@Array@v8@@SA?AV?$Local@VArray@v8@@@2@PEAVIsolate@2@H@Z 0000000180033b50     node:node.exe
 0003:00000b58       __imp_?Length@Array@v8@@QEBAIXZ 0000000180033b58     node:node.exe
 0003:00000b60       __imp_?New@Date@v8@@SA?AV?$MaybeLocal@VValue@v8@@@2@V?$Local@VContext@v8@@@2@N@Z 0000000180033b60     node:node.exe
 0003:00000b68       __imp_?SetClassName@FunctionTemplate@v8@@QEAAXV?$Local@VString@v8@@@2@@Z 0000000180033b68     node:node.exe
 0003:00000b70       __imp_?PrototypeTemplate@FunctionTemplate@v8@@QEAA?AV?$Local@VObjectTemplate@v8@@@2@XZ 0000000180033b70     node:node.exe
 0003:00000b78       __imp_?InstanceTemplate@FunctionTemplate@v8@@QEAA?AV?$Local@VObjectTemplate@v8@@@2@XZ 0000000180033b78     node:node.exe
 0003:00000b80       __imp_?GetFunction@FunctionTemplate@v8@@QEAA?AV?$Local@VFunction@v8@@@2@XZ 0000000180033b80     node:node.exe
 0003:00000b88       __imp_?New@FunctionTemplate@v8@@SA?AV?$Local@VFunctionTemplate@v8@@@2@PEAVIsolate@2@P6AXAEBV?$FunctionCallbackInfo@VValue@v8@@@2@@ZV?$Local@VValue@v8@@@2@V?$Local@VSignature@v8@@@2@HW4ConstructorBehavior@2@@Z 0000000180033b88     node:node.exe
 0003:00000b90       __imp_?ToLocalEmpty@V8@v8@@CAXXZ 0000000180033b90     node:node.exe
 0003:00000b98       __imp_?ClearWeak@V8@v8@@CAPEAXPEAPEAVObject@internal@2@@Z 0000000180033b98     node:node.exe
 0003:00000ba0       __imp_?MakeWeak@V8@v8@@CAXPEAPEAVObject@internal@2@PEAXP6AXAEBV?$WeakCallbackInfo@X@2@@ZW4WeakCallbackType@2@@Z 0000000180033ba0     node:node.exe
 0003:00000ba8       __imp_?DisposeGlobal@V8@v8@@CAXPEAPEAVObject@internal@2@@Z 0000000180033ba8     node:node.exe
 0003:00000bb0       __imp_?GlobalizeReference@V8@v8@@CAPEAPEAVObject@internal@2@PEAVIsolate@42@PEAPEAV342@@Z 0000000180033bb0     node:node.exe
 0003:00000bb8       __imp_?IntegerValue@Value@v8@@QEBA_JXZ 0000000180033bb8     node:node.exe
 0003:00000bc0       __imp_?NumberValue@Value@v8@@QEBANXZ 0000000180033bc0     node:node.exe
 0003:00000bc8       __imp_?BooleanValue@Value@v8@@QEBA_NXZ 0000000180033bc8     node:node.exe
 0003:00000bd0       __imp_?ToInt32@Value@v8@@QEBA?AV?$MaybeLocal@VInt32@v8@@@2@V?$Local@VContext@v8@@@2@@Z 0000000180033bd0     node:node.exe
 0003:00000bd8       __imp_?ToInteger@Value@v8@@QEBA?AV?$MaybeLocal@VInteger@v8@@@2@V?$Local@VContext@v8@@@2@@Z 0000000180033bd8     node:node.exe
 0003:00000be0       __imp_?IsInt32@Value@v8@@QEBA_NXZ 0000000180033be0     node:node.exe
 0003:00000be8       __imp_?IsNumber@Value@v8@@QEBA_NXZ 0000000180033be8     node:node.exe
 0003:00000bf0       __imp_?IsBoolean@Value@v8@@QEBA_NXZ 0000000180033bf0     node:node.exe
 0003:00000bf8       __imp_?HasCaught@TryCatch@v8@@QEBA_NXZ 0000000180033bf8     node:node.exe
 0003:00000c00       __imp_??1TryCatch@v8@@QEAA@XZ 0000000180033c00     node:node.exe
 0003:00000c08       __imp_??0TryCatch@v8@@QEAA@PEAVIsolate@1@@Z 0000000180033c08     node:node.exe
 0003:00000c10       __imp_?Escape@EscapableHandleScope@v8@@AEAAPEAPEAVObject@internal@2@PEAPEAV342@@Z 0000000180033c10     node:node.exe
 0003:00000c18       __imp_??0EscapableHandleScope@v8@@QEAA@PEAVIsolate@1@@Z 0000000180033c18     node:node.exe
 0003:00000c20       __imp_?Concat@String@v8@@SA?AV?$Local@VString@v8@@@2@V32@0@Z 0000000180033c20     node:node.exe
 0003:00000c28       __imp_?NewFromTwoByte@String@v8@@SA?AV?$MaybeLocal@VString@v8@@@2@PEAVIsolate@2@PEBGW4NewStringType@2@H@Z 0000000180033c28     node:node.exe
 0003:00000c30       __imp_?NewFromUtf8@String@v8@@SA?AV?$MaybeLocal@VString@v8@@@2@PEAVIsolate@2@PEBDW4NewStringType@2@H@Z 0000000180033c30     node:node.exe
 0003:00000c38       __imp_?Write@String@v8@@QEBAHPEAGHHH@Z 0000000180033c38     node:node.exe
 0003:00000c40       __imp_?Length@String@v8@@QEBAHXZ 0000000180033c40     node:node.exe
 0003:00000c48       __imp_?New@Number@v8@@SA?AV?$Local@VNumber@v8@@@2@PEAVIsolate@2@N@Z 0000000180033c48     node:node.exe
 0003:00000c50       __imp_?SlowGetAlignedPointerFromInternalField@Object@v8@@AEAAPEAXH@Z 0000000180033c50     node:node.exe
 0003:00000c58       __imp_?SlowGetInternalField@Object@v8@@AEAA?AV?$Local@VValue@v8@@@2@H@Z 0000000180033c58     node:node.exe
 0003:00000c60       __imp_?New@Object@v8@@SA?AV?$Local@VObject@v8@@@2@PEAVIsolate@2@@Z 0000000180033c60     node:node.exe
 0003:00000c68       __imp_?SetAlignedPointerInInternalField@Object@v8@@QEAAXHPEAX@Z 0000000180033c68     node:node.exe
 0003:00000c70       __imp_?SetInternalField@Object@v8@@QEAAXHV?$Local@VValue@v8@@@2@@Z 0000000180033c70     node:node.exe
 0003:00000c78       __imp_?InternalFieldCount@Object@v8@@QEAAHXZ 0000000180033c78     node:node.exe
 0003:00000c80       __imp_?SetPrototype@Object@v8@@QEAA_NV?$Local@VValue@v8@@@2@@Z 0000000180033c80     node:node.exe
 0003:00000c88       __imp_?Get@Object@v8@@QEAA?AV?$Local@VValue@v8@@@2@I@Z 0000000180033c88     node:node.exe
 0003:00000c90       __imp_?Set@Object@v8@@QEAA_NV?$Local@VValue@v8@@@2@0@Z 0000000180033c90     node:node.exe
 0003:00000c98       __imp_?NewInstance@Function@v8@@QEBA?AV?$Local@VObject@v8@@@2@HQEAV?$Local@VValue@v8@@@2@@Z 0000000180033c98     node:node.exe
 0003:00000ca0       __imp_?SetInternalFieldCount@ObjectTemplate@v8@@QEAAXH@Z 0000000180033ca0     node:node.exe
 0003:00000ca8       __imp_?NewInstance@ObjectTemplate@v8@@QEAA?AV?$MaybeLocal@VObject@v8@@@2@V?$Local@VContext@v8@@@2@@Z 0000000180033ca8     node:node.exe
 0003:00000cb0       __imp_?New@ObjectTemplate@v8@@SA?AV?$Local@VObjectTemplate@v8@@@2@PEAVIsolate@2@V?$Local@VFunctionTemplate@v8@@@2@@Z 0000000180033cb0     node:node.exe
 0003:00000cb8       __imp_uv_mutex_lock        0000000180033cb8     node:node.exe
 0003:00000cc0       __imp_?FatalException@node@@YAXPEAVIsolate@v8@@AEBVTryCatch@3@@Z 0000000180033cc0     node:node.exe
 0003:00000cc8       __imp_node_module_register 0000000180033cc8     node:node.exe
 0003:00000cd0       __imp_?MakeCallback@node@@YA?AV?$Local@VValue@v8@@@v8@@PEAVIsolate@3@V?$Local@VObject@v8@@@3@V?$Local@VFunction@v8@@@3@HPEAV23@@Z 0000000180033cd0     node:node.exe
 0003:00000cd8       __imp_uv_mutex_init        0000000180033cd8     node:node.exe
 0003:00000ce0       __imp_uv_default_loop      0000000180033ce0     node:node.exe
 0003:00000ce8       __imp_?ToString@Value@v8@@QEBA?AV?$Local@VString@v8@@@2@XZ 0000000180033ce8     node:node.exe
 0003:00000cf0       __imp_?LowMemoryNotification@Isolate@v8@@QEAAXXZ 0000000180033cf0     node:node.exe
 0003:00000cf8       __imp_?TypeError@Exception@v8@@SA?AV?$Local@VValue@v8@@@2@V?$Local@VString@v8@@@2@@Z 0000000180033cf8     node:node.exe
 0003:00000d00       __imp_?Value@Boolean@v8@@QEBA_NXZ 0000000180033d00     node:node.exe
 0003:00000d08       __imp_?Equals@Value@v8@@QEBA_NV?$Local@VValue@v8@@@2@@Z 0000000180033d08     node:node.exe
 0003:00000d10       __imp_?Uint32Value@Value@v8@@QEBAIXZ 0000000180033d10     node:node.exe
 0003:00000d18       __imp_?IsExternal@Value@v8@@QEBA_NXZ 0000000180033d18     node:node.exe
 0003:00000d20       __imp_?IsObject@Value@v8@@QEBA_NXZ 0000000180033d20     node:node.exe
 0003:00000d28       __imp_?IsArray@Value@v8@@QEBA_NXZ 0000000180033d28     node:node.exe
 0003:00000d30       __imp_?IsFunction@Value@v8@@QEBA_NXZ 0000000180033d30     node:node.exe
 0003:00000d38       __imp_??1Value@String@v8@@QEAA@XZ 0000000180033d38     node:node.exe
 0003:00000d40       __imp_??0Value@String@v8@@QEAA@V?$Local@VValue@v8@@@2@@Z 0000000180033d40     node:node.exe
 0003:00000d48       __imp_?Has@Object@v8@@QEAA_NV?$Local@VValue@v8@@@2@@Z 0000000180033d48     node:node.exe
 0003:00000d50       __imp_?Get@Object@v8@@QEAA?AV?$Local@VValue@v8@@@2@V32@@Z 0000000180033d50     node:node.exe
 0003:00000d58       __imp_?SetAccessor@ObjectTemplate@v8@@QEAAXV?$Local@VName@v8@@@2@P6AX0AEBV?$PropertyCallbackInfo@VValue@v8@@@2@@ZP6AX0V?$Local@VValue@v8@@@2@AEBV?$PropertyCallbackInfo@X@2@@Z3W4AccessControl@2@W4PropertyAttribute@2@V?$Local@VAccessorSignature@v8@@@2@@Z 0000000180033d58     node:node.exe
 0003:00000d60       __imp_?ToObject@Value@v8@@QEBA?AV?$Local@VObject@v8@@@2@XZ 0000000180033d60     node:node.exe
 0003:00000d68       __imp_?ToBoolean@Value@v8@@QEBA?AV?$Local@VBoolean@v8@@@2@XZ 0000000180033d68     node:node.exe
 0003:00000d70       __imp_?Int32Value@Value@v8@@QEBAHXZ 0000000180033d70     node:node.exe
 0003:00000d78       __imp_?Value@Int32@v8@@QEBAHXZ 0000000180033d78     node:node.exe
 0003:00000d80       __imp_?ToInt32@Value@v8@@QEBA?AV?$Local@VInt32@v8@@@2@XZ 0000000180033d80     node:node.exe
 0003:00000d88       \177node_NULL_THUNK_DATA_DLA 0000000180033d88     node:node.exe
 0003:00000d90       __hmod__node_exe           0000000180033d90     node:node.exe
 0003:00000d98       __scrt_current_native_startup_state 0000000180033d98     LIBCMT:utility.obj
 0003:00000da0       __scrt_native_startup_lock 0000000180033da0     LIBCMT:utility.obj
 0003:00001350       __favor                    0000000180034350     LIBCMT:_cpu_disp_.obj
 0003:00001354       __scrt_debugger_hook_flag  0000000180034354     LIBCMT:utility_desktop.obj
 0003:00001360       ?__type_info_root_node@@3U__type_info_node@@A 0000000180034360     LIBCMT:tncleanup.obj
 0003:00001370       ?_OptionsStorage@?1??__local_stdio_printf_options@@9@4_KA 0000000180034370     LIBCMT:default_local_stdio_options.obj
 0003:00001378       ?_OptionsStorage@?1??__local_stdio_scanf_options@@9@4_KA 0000000180034378     LIBCMT:default_local_stdio_options.obj
 0003:00001498       __pPurecall                0000000180034498     libvcruntime:purevirt_data.obj
 0003:000014a0       ?pArgList@UnDecorator@@0PEAVReplicator@@EA 00000001800344a0     libvcruntime:undname.obj
 0003:000014a8       ?pZNameList@UnDecorator@@0PEAVReplicator@@EA 00000001800344a8     libvcruntime:undname.obj
 0003:000014b0       ?pTemplateArgList@UnDecorator@@0PEAVReplicator@@EA 00000001800344b0     libvcruntime:undname.obj
 0003:000014b8       ?gName@UnDecorator@@0PEBDEB 00000001800344b8     libvcruntime:undname.obj
 0003:000014c0       ?name@UnDecorator@@0PEBDEB 00000001800344c0     libvcruntime:undname.obj
 0003:000014c8       ?outputString@UnDecorator@@0PEADEA 00000001800344c8     libvcruntime:undname.obj
 0003:000014d0       ?maxStringLength@UnDecorator@@0HA 00000001800344d0     libvcruntime:undname.obj
 0003:000014d4       ?disableFlags@UnDecorator@@0KA 00000001800344d4     libvcruntime:undname.obj
 0003:000014d8       ?fExplicitTemplateParams@UnDecorator@@0_NA 00000001800344d8     libvcruntime:undname.obj
 0003:000014d9       ?fGetTemplateArgumentList@UnDecorator@@0_NA 00000001800344d9     libvcruntime:undname.obj
 0003:000014e0       ?m_pGetParameter@UnDecorator@@0P6APEADJ@ZEA 00000001800344e0     libvcruntime:undname.obj
 0003:00001638       _environ_table             0000000180034638     libucrt:environment_initialization.obj
 0003:00001640       _wenviron_table            0000000180034640     libucrt:environment_initialization.obj
 0003:00001648       __dcrt_initial_wide_environment 0000000180034648     libucrt:environment_initialization.obj
 0003:00001650       __dcrt_initial_narrow_environment 0000000180034650     libucrt:environment_initialization.obj
 0003:00001658       __acrt_atexit_table        0000000180034658     libucrt:onexit.obj
 0003:00001670       __acrt_at_quick_exit_table 0000000180034670     libucrt:onexit.obj
 0003:00001690       ?_timezone@@3V?$dual_state_global@J@__crt_state_management@@A 0000000180034690     libucrt:timeset.obj
 0003:00001694       ?_daylight@@3V?$dual_state_global@H@__crt_state_management@@A 0000000180034694     libucrt:timeset.obj
 0003:00001698       ?_dstbias@@3V?$dual_state_global@J@__crt_state_management@@A 0000000180034698     libucrt:timeset.obj
 0003:00001778       _nstream                   0000000180034778     libucrt:_file.obj
 0003:00001780       __piob                     0000000180034780     libucrt:_file.obj
 0003:00001788       _cflush                    0000000180034788     libucrt:_file.obj
 0003:000017b0       __acrt_locale_changed_data 00000001800347b0     libucrt:wsetlocale.obj
 0003:000017b8       __acrt_current_locale_data 00000001800347b8     libucrt:nlsdata.obj
 0003:00001b74       __mbcodepage               0000000180034b74     libucrt:mbctype.obj
 0003:00001b78       __ismbcodepage             0000000180034b78     libucrt:mbctype.obj
 0003:00001b80       __mbulinfo                 0000000180034b80     libucrt:mbctype.obj
 0003:00001b90       __mblocalename             0000000180034b90     libucrt:mbctype.obj
 0003:00001b9c       __argc                     0000000180034b9c     libucrt:argv_data.obj
 0003:00001ba0       __argv                     0000000180034ba0     libucrt:argv_data.obj
 0003:00001ba8       __wargv                    0000000180034ba8     libucrt:argv_data.obj
 0003:00001bb0       _acmdln                    0000000180034bb0     libucrt:argv_data.obj
 0003:00001bb8       _wcmdln                    0000000180034bb8     libucrt:argv_data.obj
 0003:00001bc0       _pgmptr                    0000000180034bc0     libucrt:argv_data.obj
 0003:00001bc8       __acrt_heap                0000000180034bc8     libucrt:heap_handle.obj
 0003:00001bd0       __pioinfo                  0000000180034bd0     libucrt:ioinit.obj
 0003:00001fd0       _nhandle                   0000000180034fd0     libucrt:ioinit.obj
 0003:00001fe0       __acrt_stdout_buffer       0000000180034fe0     libucrt:_sftbuf.obj
 0003:00001fe8       __acrt_stderr_buffer       0000000180034fe8     libucrt:_sftbuf.obj
 0003:00002000       __acrt_lconv_static_null   0000000180035000     libucrt:localeconv.obj
 0003:00002004       __acrt_lconv_static_W_null 0000000180035004     libucrt:localeconv.obj
 0003:00002008       __fma3_is_available        0000000180035008     libucrt:fma3_available.obj
 0003:0000200c       __use_fma3_lib             000000018003500c     libucrt:fma3_available.obj
 0003:00002010       ?DloadKernel32@@3PEAUHINSTANCE__@@EA 0000000180035010     DelayImp:delayhlp.obj
 0003:00002018       ?DloadAcquireSRWLockExclusive@@3P6AXPEA_K@ZEA 0000000180035018     DelayImp:delayhlp.obj
 0003:00002020       ?DloadReleaseSRWLockExclusive@@3P6AXPEA_K@ZEA 0000000180035020     DelayImp:delayhlp.obj
 0003:00002028       ?DloadSrwLock@@3_KA        0000000180035028     DelayImp:delayhlp.obj
 0003:00002030       ?DloadSectionLockCount@@3KA 0000000180035030     DelayImp:delayhlp.obj
 0003:00002034       ?DloadSectionOldProtection@@3KA 0000000180035034     DelayImp:delayhlp.obj
 0003:00002038       ?DloadSectionCommitPermanent@@3KA 0000000180035038     DelayImp:delayhlp.obj
 0003:00002040       ?g_odbcMutex@ODBC@@2U_RTL_CRITICAL_SECTION@@A 0000000180035040     odbc.obj
 0003:00002068       ?constructor@ODBC@@2V?$Persistent@VFunction@v8@@V?$NonCopyablePersistentTraits@VFunction@v8@@@2@@Nan@@A 0000000180035068     odbc.obj
 0003:00002070       ?OPTION_NORESULTS@ODBCConnection@@2V?$Persistent@VString@v8@@V?$NonCopyablePersistentTraits@VString@v8@@@2@@Nan@@A 0000000180035070     odbc_connection.obj
 0003:00002078       ?constructor@ODBCConnection@@2V?$Persistent@VFunction@v8@@V?$NonCopyablePersistentTraits@VFunction@v8@@@2@@Nan@@A 0000000180035078     odbc_connection.obj
 0003:00002080       ?OPTION_SQL@ODBCConnection@@2V?$Persistent@VString@v8@@V?$NonCopyablePersistentTraits@VString@v8@@@2@@Nan@@A 0000000180035080     odbc_connection.obj
 0003:00002088       ?OPTION_PARAMS@ODBCConnection@@2V?$Persistent@VString@v8@@V?$NonCopyablePersistentTraits@VString@v8@@@2@@Nan@@A 0000000180035088     odbc_connection.obj
 0003:00002090       ?constructor@ODBCStatement@@2V?$Persistent@VFunction@v8@@V?$NonCopyablePersistentTraits@VFunction@v8@@@2@@Nan@@A 0000000180035090     odbc_statement.obj
 0003:00002098       ?constructor@ODBCResult@@2V?$Persistent@VFunction@v8@@V?$NonCopyablePersistentTraits@VFunction@v8@@@2@@Nan@@A 0000000180035098     odbc_result.obj
 0003:000020a0       ?OPTION_FETCH_MODE@ODBCResult@@2V?$Persistent@VString@v8@@V?$NonCopyablePersistentTraits@VString@v8@@@2@@Nan@@A 00000001800350a0     odbc_result.obj
 0003:000020a8       __dyn_tls_init_callback    00000001800350a8     <common>
 0003:000020b0       __scrt_ucrt_dll_is_in_use  00000001800350b0     <common>
 0003:000020b8       _pDestructExceptionObject  00000001800350b8     <common>

 entry point at        0001:0000e918

 Static symbols

 0000:fffc5000       .debug$S                   0000000180000000     odbc32:ODBC32.dll
 0000:fffc5000       .debug$S                   0000000180000000     kernel32:KERNEL32.dll
 0000:fffc5000       .debug$S                   0000000180000000     kernel32:KERNEL32.dll
 0000:fffc5000       .debug$S                   0000000180000000     kernel32:KERNEL32.dll
 0000:fffc5000       .debug$S                   0000000180000000     kernel32:KERNEL32.dll
 0000:fffc5000       .debug$S                   0000000180000000     kernel32:KERNEL32.dll
 0000:fffc5000       .debug$S                   0000000180000000     kernel32:KERNEL32.dll
 0000:fffc5000       .debug$S                   0000000180000000     kernel32:KERNEL32.dll
 0000:fffc5000       .debug$S                   0000000180000000     kernel32:KERNEL32.dll
 0000:fffc5000       .debug$S                   0000000180000000     kernel32:KERNEL32.dll
 0000:fffc5000       .debug$S                   0000000180000000     kernel32:KERNEL32.dll
 0000:fffc5000       .debug$S                   0000000180000000     kernel32:KERNEL32.dll
 0000:fffc5000       .debug$S                   0000000180000000     kernel32:KERNEL32.dll
 0000:fffc5000       .debug$S                   0000000180000000     kernel32:KERNEL32.dll
 0000:fffc5000       .debug$S                   0000000180000000     kernel32:KERNEL32.dll
 0000:fffc5000       .debug$S                   0000000180000000     kernel32:KERNEL32.dll
 0000:fffc5000       .debug$S                   0000000180000000     kernel32:KERNEL32.dll
 0000:fffc5000       .debug$S                   0000000180000000     kernel32:KERNEL32.dll
 0000:fffc5000       .debug$S                   0000000180000000     kernel32:KERNEL32.dll
 0000:fffc5000       .debug$S                   0000000180000000     kernel32:KERNEL32.dll
 0000:fffc5000       .debug$S                   0000000180000000     kernel32:KERNEL32.dll
 0000:fffc5000       .debug$S                   0000000180000000     kernel32:KERNEL32.dll
 0000:fffc5000       .debug$S                   0000000180000000     kernel32:KERNEL32.dll
 0000:fffc5000       .debug$S                   0000000180000000     kernel32:KERNEL32.dll
 0000:fffc5000       .debug$S                   0000000180000000     kernel32:KERNEL32.dll
 0000:fffc5000       .debug$S                   0000000180000000     kernel32:KERNEL32.dll
 0000:fffc5000       .debug$S                   0000000180000000     kernel32:KERNEL32.dll
 0000:fffc5000       .debug$S                   0000000180000000     kernel32:KERNEL32.dll
 0000:fffc5000       .debug$S                   0000000180000000     kernel32:KERNEL32.dll
 0000:fffc5000       .debug$S                   0000000180000000     kernel32:KERNEL32.dll
 0000:fffc5000       .debug$S                   0000000180000000     kernel32:KERNEL32.dll
 0000:fffc5000       .debug$S                   0000000180000000     kernel32:KERNEL32.dll
 0000:fffc5000       .debug$S                   0000000180000000     kernel32:KERNEL32.dll
 0000:fffc5000       .debug$S                   0000000180000000     kernel32:KERNEL32.dll
 0000:fffc5000       .debug$S                   0000000180000000     kernel32:KERNEL32.dll
 0000:fffc5000       .debug$S                   0000000180000000     kernel32:KERNEL32.dll
 0000:fffc5000       .debug$S                   0000000180000000     kernel32:KERNEL32.dll
 0000:fffc5000       .debug$S                   0000000180000000     kernel32:KERNEL32.dll
 0000:fffc5000       .debug$S                   0000000180000000     kernel32:KERNEL32.dll
 0000:fffc5000       .debug$S                   0000000180000000     node:node.exe
 0000:fffc5000       .debug$S                   0000000180000000     node:node.exe
 0000:fffc5000       .debug$S                   0000000180000000     kernel32:KERNEL32.dll
 0000:fffc5000       .debug$S                   0000000180000000     node:node.exe
 0000:fffc5000       .debug$S                   0000000180000000     kernel32:KERNEL32.dll
 0000:fffc5000       .debug$S                   0000000180000000     node:node.exe
 0000:fffc5000       .debug$S                   0000000180000000     node:node.exe
 0000:fffc5000       .debug$S                   0000000180000000     node:node.exe
 0000:fffc5000       .debug$S                   0000000180000000     node:node.exe
 0000:fffc5000       .debug$S                   0000000180000000     node:node.exe
 0000:fffc5000       .debug$S                   0000000180000000     node:node.exe
 0000:fffc5000       .debug$S                   0000000180000000     node:node.exe
 0000:fffc5000       .debug$S                   0000000180000000     node:node.exe
 0000:fffc5000       .debug$S                   0000000180000000     node:node.exe
 0000:fffc5000       .debug$S                   0000000180000000     node:node.exe
 0000:fffc5000       .debug$S                   0000000180000000     node:node.exe
 0000:fffc5000       .debug$S                   0000000180000000     node:node.exe
 0000:fffc5000       .debug$S                   0000000180000000     node:node.exe
 0000:fffc5000       .debug$S                   0000000180000000     node:node.exe
 0000:fffc5000       .debug$S                   0000000180000000     node:node.exe
 0000:fffc5000       .debug$S                   0000000180000000     node:node.exe
 0000:fffc5000       .debug$S                   0000000180000000     node:node.exe
 0000:fffc5000       .debug$S                   0000000180000000     node:node.exe
 0000:fffc5000       .debug$S                   0000000180000000     node:node.exe
 0000:fffc5000       .debug$S                   0000000180000000     kernel32:KERNEL32.dll
 0000:fffc5000       .debug$S                   0000000180000000     node:node.exe
 0000:fffc5000       .debug$S                   0000000180000000     node:node.exe
 0000:fffc5000       .debug$S                   0000000180000000     node:node.exe
 0000:fffc5000       .debug$S                   0000000180000000     node:node.exe
 0000:fffc5000       .debug$S                   0000000180000000     node:node.exe
 0000:fffc5000       .debug$S                   0000000180000000     kernel32:KERNEL32.dll
 0000:fffc5000       .debug$S                   0000000180000000     node:node.exe
 0000:fffc5000       .debug$S                   0000000180000000     node:node.exe
 0000:fffc5000       .debug$S                   0000000180000000     node:node.exe
 0000:fffc5000       .debug$S                   0000000180000000     node:node.exe
 0000:fffc5000       .debug$S                   0000000180000000     node:node.exe
 0000:fffc5000       .debug$S                   0000000180000000     node:node.exe
 0000:fffc5000       .debug$S                   0000000180000000     node:node.exe
 0000:fffc5000       .debug$S                   0000000180000000     node:node.exe
 0000:fffc5000       .debug$S                   0000000180000000     node:node.exe
 0000:fffc5000       .debug$S                   0000000180000000     node:node.exe
 0000:fffc5000       .debug$S                   0000000180000000     node:node.exe
 0000:fffc5000       .debug$S                   0000000180000000     node:node.exe
 0000:fffc5000       .debug$S                   0000000180000000     node:node.exe
 0000:fffc5000       .debug$S                   0000000180000000     node:node.exe
 0000:fffc5000       .debug$S                   0000000180000000     node:node.exe
 0000:fffc5000       .debug$S                   0000000180000000     node:node.exe
 0000:fffc5000       .debug$S                   0000000180000000     node:node.exe
 0000:fffc5000       .debug$S                   0000000180000000     kernel32:KERNEL32.dll
 0000:fffc5000       .debug$S                   0000000180000000     node:node.exe
 0000:fffc5000       .debug$S                   0000000180000000     kernel32:KERNEL32.dll
 0000:fffc5000       .debug$S                   0000000180000000     node:node.exe
 0000:fffc5000       .debug$S                   0000000180000000     kernel32:KERNEL32.dll
 0000:fffc5000       .debug$S                   0000000180000000     node:node.exe
 0000:fffc5000       .debug$S                   0000000180000000     kernel32:KERNEL32.dll
 0000:fffc5000       .debug$S                   0000000180000000     node:node.exe
 0000:fffc5000       .debug$S                   0000000180000000     kernel32:KERNEL32.dll
 0000:fffc5000       .debug$S                   0000000180000000     node:node.exe
 0000:fffc5000       .debug$S                   0000000180000000     kernel32:KERNEL32.dll
 0000:fffc5000       .debug$S                   0000000180000000     node:node.exe
 0000:fffc5000       .debug$S                   0000000180000000     kernel32:KERNEL32.dll
 0000:fffc5000       .debug$S                   0000000180000000     node:node.exe
 0000:fffc5000       .debug$S                   0000000180000000     kernel32:KERNEL32.dll
 0000:fffc5000       .debug$S                   0000000180000000     node:node.exe
 0000:fffc5000       .debug$S                   0000000180000000     kernel32:KERNEL32.dll
 0000:fffc5000       .debug$S                   0000000180000000     node:node.exe
 0000:fffc5000       .debug$S                   0000000180000000     kernel32:KERNEL32.dll
 0000:fffc5000       .debug$S                   0000000180000000     node:node.exe
 0000:fffc5000       .debug$S                   0000000180000000     kernel32:KERNEL32.dll
 0000:fffc5000       .debug$S                   0000000180000000     node:node.exe
 0000:fffc5000       .debug$S                   0000000180000000     node:node.exe
 0000:fffc5000       .debug$S                   0000000180000000     node:node.exe
 0000:fffc5000       .debug$S                   0000000180000000     node:node.exe
 0000:fffc5000       .debug$S                   0000000180000000     node:node.exe
 0000:fffc5000       .debug$S                   0000000180000000     node:node.exe
 0000:fffc5000       .debug$S                   0000000180000000     node:node.exe
 0000:fffc5000       .debug$S                   0000000180000000     node:node.exe
 0000:fffc5000       .debug$S                   0000000180000000     node:node.exe
 0000:fffc5000       .debug$S                   0000000180000000     node:node.exe
 0000:fffc5000       .debug$S                   0000000180000000     node:node.exe
 0000:fffc5000       .debug$S                   0000000180000000     node:node.exe
 0000:fffc5000       .debug$S                   0000000180000000     kernel32:KERNEL32.dll
 0000:fffc5000       .debug$S                   0000000180000000     kernel32:KERNEL32.dll
 0000:fffc5000       .debug$S                   0000000180000000     kernel32:KERNEL32.dll
 0000:fffc5000       .debug$S                   0000000180000000     kernel32:KERNEL32.dll
 0000:fffc5000       .debug$S                   0000000180000000     kernel32:KERNEL32.dll
 0000:fffc5000       .debug$S                   0000000180000000     kernel32:KERNEL32.dll
 0000:fffc5000       .debug$S                   0000000180000000     kernel32:KERNEL32.dll
 0000:fffc5000       .debug$S                   0000000180000000     kernel32:KERNEL32.dll
 0000:fffc5000       .debug$S                   0000000180000000     kernel32:KERNEL32.dll
 0000:fffc5000       .debug$S                   0000000180000000     kernel32:KERNEL32.dll
 0000:fffc5000       .debug$S                   0000000180000000     node:node.exe
 0000:fffc5000       .debug$S                   0000000180000000     node:node.exe
 0000:fffc5000       .debug$S                   0000000180000000     node:node.exe
 0000:fffc5000       .debug$S                   0000000180000000     kernel32:KERNEL32.dll
 0000:fffc5000       .debug$S                   0000000180000000     node:node.exe
 0000:fffc5000       .debug$S                   0000000180000000     odbc_bindings.exp
 0000:fffc5000       .debug$S                   0000000180000000     node:node.exe
 0000:fffc5000       .debug$S                   0000000180000000     kernel32:KERNEL32.dll
 0000:fffc5000       .debug$S                   0000000180000000     node:node.exe
 0000:fffc5000       .debug$S                   0000000180000000     kernel32:KERNEL32.dll
 0000:fffc5000       .debug$S                   0000000180000000     node:node.exe
 0000:fffc5000       .debug$S                   0000000180000000     kernel32:KERNEL32.dll
 0000:fffc5000       .debug$S                   0000000180000000     node:node.exe
 0000:fffc5000       .debug$S                   0000000180000000     kernel32:KERNEL32.dll
 0000:fffc5000       .debug$S                   0000000180000000     node:node.exe
 0000:fffc5000       .debug$S                   0000000180000000     kernel32:KERNEL32.dll
 0000:fffc5000       .debug$S                   0000000180000000     node:node.exe
 0000:fffc5000       .debug$S                   0000000180000000     kernel32:KERNEL32.dll
 0000:fffc5000       .debug$S                   0000000180000000     node:node.exe
 0000:fffc5000       .debug$S                   0000000180000000     node:node.exe
 0000:fffc5000       .debug$S                   0000000180000000     node:node.exe
 0000:fffc5000       .debug$S                   0000000180000000     node:node.exe
 0000:fffc5000       .debug$S                   0000000180000000     node:node.exe
 0000:fffc5000       .debug$S                   0000000180000000     node:node.exe
 0000:fffc5000       .debug$S                   0000000180000000     node:node.exe
 0000:fffc5000       .debug$S                   0000000180000000     node:node.exe
 0000:fffc5000       .debug$S                   0000000180000000     node:node.exe
 0000:fffc5000       .debug$S                   0000000180000000     node:node.exe
 0000:fffc5000       .debug$S                   0000000180000000     node:node.exe
 0000:fffc5000       .debug$S                   0000000180000000     node:node.exe
 0000:fffc5000       .debug$S                   0000000180000000     node:node.exe
 0000:fffc5000       .debug$S                   0000000180000000     node:node.exe
 0000:fffc5000       .debug$S                   0000000180000000     node:node.exe
 0000:fffc5000       .debug$S                   0000000180000000     node:node.exe
 0000:fffc5000       .debug$S                   0000000180000000     node:node.exe
 0000:fffc5000       .debug$S                   0000000180000000     node:node.exe
 0000:fffc5000       .debug$S                   0000000180000000     node:node.exe
 0000:fffc5000       .debug$S                   0000000180000000     node:node.exe
 0000:fffc5000       .debug$S                   0000000180000000     node:node.exe
 0000:fffc5000       .debug$S                   0000000180000000     node:node.exe
 0000:fffc5000       .debug$S                   0000000180000000     node:node.exe
 0000:fffc5000       .debug$S                   0000000180000000     node:node.exe
 0000:fffc5000       .debug$S                   0000000180000000     node:node.exe
 0000:fffc5000       .debug$S                   0000000180000000     node:node.exe
 0000:fffc5000       .debug$S                   0000000180000000     node:node.exe
 0000:fffc5000       .debug$S                   0000000180000000     kernel32:KERNEL32.dll
 0000:fffc5000       .debug$S                   0000000180000000     kernel32:KERNEL32.dll
 0000:fffc5000       .debug$S                   0000000180000000     kernel32:KERNEL32.dll
 0000:fffc5000       .debug$S                   0000000180000000     kernel32:KERNEL32.dll
 0000:fffc5000       .debug$S                   0000000180000000     kernel32:KERNEL32.dll
 0000:fffc5000       .debug$S                   0000000180000000     kernel32:KERNEL32.dll
 0000:fffc5000       .debug$S                   0000000180000000     kernel32:KERNEL32.dll
 0000:fffc5000       .debug$S                   0000000180000000     kernel32:KERNEL32.dll
 0000:fffc5000       .debug$S                   0000000180000000     kernel32:KERNEL32.dll
 0000:fffc5000       .debug$S                   0000000180000000     kernel32:KERNEL32.dll
 0000:fffc5000       .debug$S                   0000000180000000     odbc32:ODBC32.dll
 0000:fffc5000       .debug$S                   0000000180000000     odbc32:ODBC32.dll
 0000:fffc5000       .debug$S                   0000000180000000     odbc32:ODBC32.dll
 0000:fffc5000       .debug$S                   0000000180000000     odbc32:ODBC32.dll
 0000:fffc5000       .debug$S                   0000000180000000     odbc32:ODBC32.dll
 0000:fffc5000       .debug$S                   0000000180000000     odbc32:ODBC32.dll
 0000:fffc5000       .debug$S                   0000000180000000     kernel32:KERNEL32.dll
 0000:fffc5000       .debug$S                   0000000180000000     odbc32:ODBC32.dll
 0000:fffc5000       .debug$S                   0000000180000000     odbc32:ODBC32.dll
 0000:fffc5000       .debug$S                   0000000180000000     odbc32:ODBC32.dll
 0000:fffc5000       .debug$S                   0000000180000000     kernel32:KERNEL32.dll
 0000:fffc5000       .debug$S                   0000000180000000     odbc32:ODBC32.dll
 0000:fffc5000       .debug$S                   0000000180000000     kernel32:KERNEL32.dll
 0000:fffc5000       .debug$S                   0000000180000000     odbc32:ODBC32.dll
 0000:fffc5000       .debug$S                   0000000180000000     odbc32:ODBC32.dll
 0000:fffc5000       .debug$S                   0000000180000000     odbc32:ODBC32.dll
 0000:fffc5000       .debug$S                   0000000180000000     kernel32:KERNEL32.dll
 0000:fffc5000       .debug$S                   0000000180000000     odbc32:ODBC32.dll
 0000:fffc5000       .debug$S                   0000000180000000     odbc32:ODBC32.dll
 0000:fffc5000       .debug$S                   0000000180000000     odbc32:ODBC32.dll
 0000:fffc5000       .debug$S                   0000000180000000     kernel32:KERNEL32.dll
 0000:fffc5000       .debug$S                   0000000180000000     odbc32:ODBC32.dll
 0000:fffc5000       .debug$S                   0000000180000000     odbc32:ODBC32.dll
 0000:fffc5000       .debug$S                   0000000180000000     odbc32:ODBC32.dll
 0000:fffc5000       .debug$S                   0000000180000000     odbc32:ODBC32.dll
 0000:fffc5000       .debug$S                   0000000180000000     odbc32:ODBC32.dll
 0000:fffc5000       .debug$S                   0000000180000000     kernel32:KERNEL32.dll
 0000:fffc5000       .debug$S                   0000000180000000     odbc32:ODBC32.dll
 0000:fffc5000       .debug$S                   0000000180000000     odbc32:ODBC32.dll
 0000:fffc5000       .debug$S                   0000000180000000     kernel32:KERNEL32.dll
 0000:fffc5000       .debug$S                   0000000180000000     kernel32:KERNEL32.dll
 0000:fffc5000       .debug$S                   0000000180000000     kernel32:KERNEL32.dll
 0000:fffc5000       .debug$S                   0000000180000000     kernel32:KERNEL32.dll
 0000:fffc5000       .debug$S                   0000000180000000     kernel32:KERNEL32.dll
 0001:00000000       ??__E?constructor@ODBC@@2V?$Persistent@VFunction@v8@@V?$NonCopyablePersistentTraits@VFunction@v8@@@2@@Nan@@A@@YAXXZ 0000000180001000 f   odbc.obj
 0001:00000020       ??__E?constructor@ODBCConnection@@2V?$Persistent@VFunction@v8@@V?$NonCopyablePersistentTraits@VFunction@v8@@@2@@Nan@@A@@YAXXZ 0000000180001020 f   odbc_connection.obj
 0001:00000040       ??__E?OPTION_SQL@ODBCConnection@@2V?$Persistent@VString@v8@@V?$NonCopyablePersistentTraits@VString@v8@@@2@@Nan@@A@@YAXXZ 0000000180001040 f   odbc_connection.obj
 0001:00000060       ??__E?OPTION_PARAMS@ODBCConnection@@2V?$Persistent@VString@v8@@V?$NonCopyablePersistentTraits@VString@v8@@@2@@Nan@@A@@YAXXZ 0000000180001060 f   odbc_connection.obj
 0001:00000080       ??__E?OPTION_NORESULTS@ODBCConnection@@2V?$Persistent@VString@v8@@V?$NonCopyablePersistentTraits@VString@v8@@@2@@Nan@@A@@YAXXZ 0000000180001080 f   odbc_connection.obj
 0001:000000a0       ??__E?constructor@ODBCStatement@@2V?$Persistent@VFunction@v8@@V?$NonCopyablePersistentTraits@VFunction@v8@@@2@@Nan@@A@@YAXXZ 00000001800010a0 f   odbc_statement.obj
 0001:000000c0       ??__E?constructor@ODBCResult@@2V?$Persistent@VFunction@v8@@V?$NonCopyablePersistentTraits@VFunction@v8@@@2@@Nan@@A@@YAXXZ 00000001800010c0 f   odbc_result.obj
 0001:000000e0       ??__E?OPTION_FETCH_MODE@ODBCResult@@2V?$Persistent@VString@v8@@V?$NonCopyablePersistentTraits@VString@v8@@@2@@Nan@@A@@YAXXZ 00000001800010e0 f   odbc_result.obj
 0001:00000100       ?FunctionCallbackWrapper@imp@Nan@@YAXAEBV?$FunctionCallbackInfo@VValue@v8@@@v8@@@Z 0000000180001100 f   odbc.obj
 0001:00001d04       $LN518                     0000000180002d04     odbc.obj
 0001:00002b80       _register_odbc_bindings    0000000180003b80 f   odbc.obj
 0001:00002c10       ?GetterCallbackWrapper@imp@Nan@@YAXV?$Local@VName@v8@@@v8@@AEBV?$PropertyCallbackInfo@VValue@v8@@@4@@Z 0000000180003c10 f   odbc_connection.obj
 0001:00002ce0       ?SetterCallbackWrapper@imp@Nan@@YAXV?$Local@VName@v8@@@v8@@V?$Local@VValue@v8@@@4@AEBV?$PropertyCallbackInfo@X@4@@Z 0000000180003ce0 f   odbc_connection.obj
 0001:0000daa0       $LN303                     000000018000eaa0     strptime.obj
 0001:0000db00       $LN302                     000000018000eb00     strptime.obj
 0001:0000db60       conv_num                   000000018000eb60 f   strptime.obj
 0001:0000dc00       strncasecmp                000000018000ec00 f   strptime.obj
 0001:0000dc90       ?load_exe_hook@@YAP6A_JXZIPEAUDelayLoadInfo@@@Z 000000018000ec90 f   win_delay_load_hook.obj
 0001:0000e170       $$000000                   000000018000f170     LIBCMT:_amdsecgs_.obj
 0001:0000e5cc       ?dllmain_crt_dispatch@@YAHQEAUHINSTANCE__@@KQEAX@Z 000000018000f5cc f   LIBCMT:dll_dllmain.obj
 0001:0000e61c       ?dllmain_crt_process_attach@@YAHQEAUHINSTANCE__@@QEAX@Z 000000018000f61c f   LIBCMT:dll_dllmain.obj
 0001:0000e748       ?dllmain_crt_process_detach@@YAH_N@Z 000000018000f748 f   LIBCMT:dll_dllmain.obj
 0001:0000e7cc       ?dllmain_dispatch@@YAHQEAUHINSTANCE__@@KQEAX@Z 000000018000f7cc f   LIBCMT:dll_dllmain.obj
 0001:0000e8c4       ?dllmain_raw@@YAHQEAUHINSTANCE__@@KQEAX@Z 000000018000f8c4 f   LIBCMT:dll_dllmain.obj
 0001:0000eb10       capture_current_context    000000018000fb10 f   LIBCMT:gs_report.obj
 0001:0000eb80       capture_previous_context   000000018000fb80 f   LIBCMT:gs_report.obj
 0001:0000f6c0       $$000000                   00000001800106c0     libvcruntime:memset.obj
 0001:0000f7ac       MsetTab                    00000001800107ac     libvcruntime:memset.obj
 0001:0000faa8       ?try_get_function@@YAPEAXW4function_id@?A0xc6fdf113@@QEBDQEBW4module_id@2@2@Z 0000000180010aa8 f   libvcruntime:winapi_downlevel.obj
 0001:0000ff00       $$000000                   0000000180010f00     libvcruntime:_jmpuwind_.obj
 0001:0000fff0       ??$common_mktime@_J@@YA_JQEAUtm@@_N@Z 0000000180010ff0 f   libucrt:mktime.obj
 0001:00010360       ??$common_assert_to_message_box@_W@@YAXQEB_W0IQEAX@Z 0000000180011360 f   libucrt:assert.obj
 0001:00010424       ??$common_assert_to_message_box_build_string@_W@@YAXQEA_W_KQEB_W2IQEAX@Z 0000000180011424 f   libucrt:assert.obj
 0001:00010bf8       ??$common_assert_to_stderr@_W@@YAXQEB_W0I@Z 0000000180011bf8 f   libucrt:assert.obj
 0001:00010d68       ?get_assert_format@@YAPEB_W_W@Z 0000000180011d68 f   libucrt:assert.obj
 0001:00010f24       ?internal_isupper_l@@YA_NHQEAU__crt_locale_pointers@@@Z 0000000180011f24 f   libucrt:tolower_toupper.obj
 0001:00011520       ?atexit_exception_filter@@YAHK@Z 0000000180012520 f   libucrt:exit.obj
 0001:0001152c       ?common_exit@@YAXHW4_crt_exit_cleanup_mode@@W4_crt_exit_return_mode@@@Z 000000018001252c f   libucrt:exit.obj
 0001:00011698       ?exit_or_terminate_process@@YAXI@Z 0000000180012698 f   libucrt:exit.obj
 0001:000116e4       ?try_cor_exit_process@@YAXI@Z 00000001800126e4 f   libucrt:exit.obj
 0001:0001177c       ??$parse_command_line@D@@YAXPEADPEAPEAD0PEA_K2@Z 000000018001277c f   libucrt:argv_parsing.obj
 0001:00011b14       ??$common_get_or_create_environment_nolock@D@@YAPEAPEADXZ 0000000180012b14 f   libucrt:environment_initialization.obj
 0001:00011b5c       ??$common_initialize_environment_nolock@D@@YAHXZ 0000000180012b5c f   libucrt:environment_initialization.obj
 0001:00011bc8       ??$create_environment@D@@YAQEAPEADQEAD@Z 0000000180012bc8 f   libucrt:environment_initialization.obj
 0001:00011cc4       ??$free_environment@D@@YAXQEAPEAD@Z 0000000180012cc4 f   libucrt:environment_initialization.obj
 0001:00011cc4       ??$free_environment@_W@@YAXQEAPEA_W@Z 0000000180012cc4 f   libucrt:environment_initialization.obj
 0001:00011d08       ??$initialize_environment_by_cloning_nolock@D@@YAHXZ 0000000180012d08 f   libucrt:environment_initialization.obj
 0001:00011ddc       ??$uninitialize_environment_internal@D@@YAXAEAPEAPEAD@Z 0000000180012ddc f   libucrt:environment_initialization.obj
 0001:00011df8       ??$uninitialize_environment_internal@_W@@YAXAEAPEAPEA_W@Z 0000000180012df8 f   libucrt:environment_initialization.obj
 0001:00012038       ??R<lambda_4e60a939b0d047cfe11ddc22648dfba9>@@QEBAHXZ 0000000180013038 f   libucrt:onexit.obj
 0001:000122e8       initialize_global_variables 00000001800132e8 f   libucrt:initialization.obj
 0001:000122fc       initialize_c               00000001800132fc f   libucrt:initialization.obj
 0001:00012320       uninitialize_environment   0000000180013320 f   libucrt:initialization.obj
 0001:00012330       uninitialize_c             0000000180013330 f   libucrt:initialization.obj
 0001:00012330       report_memory_leaks        0000000180013330 f   libucrt:initialization.obj
 0001:00012330       uninitialize_global_state_isolation 0000000180013330 f   libucrt:initialization.obj
 0001:00012330       initialize_global_state_isolation 0000000180013330 f   libucrt:initialization.obj
 0001:00012330       initialize_environment     0000000180013330 f   libucrt:initialization.obj
 0001:00012334       initialize_pointers        0000000180013334 f   libucrt:initialization.obj
 0001:00012388       uninitialize_vcruntime     0000000180013388 f   libucrt:initialization.obj
 0001:00012390       uninitialize_allocated_memory 0000000180013390 f   libucrt:initialization.obj
 0001:00012b20       ??R<lambda_dd75445284c072d0bd3768540cc698fa>@@QEBAHXZ 0000000180013b20 f   libucrt:output.obj
 0001:000156b8       ??$common_gmtime_s@_J@@YAHQEAUtm@@QEB_J@Z 00000001800166b8 f   libucrt:gmtime.obj
 0001:0001584c       ?compute_year@@YAHAEA_JAEA_N@Z 000000018001684c f   libucrt:gmtime.obj
 0001:00015938       ??$common_localtime_s@_J@@YAHQEAUtm@@QEB_J@Z 0000000180016938 f   libucrt:localtime.obj
 0001:00015c5c       ?_isindst_nolock@@YAHQEAUtm@@@Z 0000000180016c5c f   libucrt:tzset.obj
 0001:00015f78       ?cvtdate@@YAXW4transition_type@?A0x1b14ceb2@@W4date_type@2@HHHHHHHHH@Z 0000000180016f78 f   libucrt:tzset.obj
 0001:0001616c       ?tzset_from_environment_nolock@@YAXPEAD@Z 000000018001716c f   libucrt:tzset.obj
 0001:000163bc       ?tzset_from_system_nolock@@YAXXZ 00000001800173bc f   libucrt:tzset.obj
 0001:00016590       ?tzset_nolock@@YAXXZ       0000000180017590 f   libucrt:tzset.obj
 0001:0001670c       ??$common_xtox@K_W@@YAHKQEA_W_KI_N@Z 000000018001770c f   libucrt:xtoa.obj
 0001:000167b8       ??$common_xtox_s@K_W@@YAHKQEA_W_KI_N@Z 00000001800177b8 f   libucrt:xtoa.obj
 0001:00016a7c       ??$message_box_wait_thread@_W@@YAKQEAX@Z 0000000180017a7c f   libucrt:crtmbox.obj
 0001:00016e38       common_flush_all           0000000180017e38 f   libucrt:fflush.obj
 0001:00016fa0       ??R<lambda_b721fa326cdb32351d23dfa67958c160>@@QEBAHXZ 0000000180017fa0 f   libucrt:setvbuf.obj
 0001:000175e4       ?__acrt_LCMapStringA_stat@@YAHPEAU__crt_locale_pointers@@PEB_WKPEBDHPEADHHH@Z 00000001800185e4 f   libucrt:lcmapstringa.obj
 0001:00017b00       ?construct_ptd_array@@YAXQEAU__acrt_ptd@@@Z 0000000180018b00 f   libucrt:per_thread_data.obj
 0001:00017bd0       ?destroy_fls@@YAXPEAX@Z    0000000180018bd0 f   libucrt:per_thread_data.obj
 0001:00017bf0       ?destroy_ptd_array@@YAXQEAU__acrt_ptd@@@Z 0000000180018bf0 f   libucrt:per_thread_data.obj
 0001:00017ce8       ?replace_current_thread_locale_nolock@@YAXQEAU__acrt_ptd@@QEAU__crt_locale_data@@@Z 0000000180018ce8 f   libucrt:per_thread_data.obj
 0001:0001809c       ?try_get_function@@YAPEAXW4function_id@?A0x63058377@@QEBDQEBW4module_id@2@2@Z 000000018001909c f   libucrt:winapi_thunks.obj
 0001:000189b8       ?<helper_func_cdecl>@<lambda_2feae5270eb4d0d5532525f423405775>@@CAHPEBX0@Z 00000001800199b8 f   libucrt:argv_wildcards.obj
 0001:000189cc       ??$common_expand_argv_wildcards@D@@YAHQEAPEADQEAPEAPEAD@Z 00000001800199cc f   libucrt:argv_wildcards.obj
 0001:00018bd8       ??$copy_and_add_argument_to_buffer@D@@YAHQEBD0_KAEAV?$argument_list@D@?A0xca0879c4@@@Z 0000000180019bd8 f   libucrt:argv_wildcards.obj
 0001:00018ce8       ??$expand_argument_wildcards@D@@YAHQEAD0AEAV?$argument_list@D@?A0xca0879c4@@@Z 0000000180019ce8 f   libucrt:argv_wildcards.obj
 0001:00018f9c       ??R<lambda_ad1ced32f4ac17aa236e5ef05d6b3b7c>@@QEBAXXZ 0000000180019f9c f   libucrt:mbctype.obj
 0001:000191b4       ?getSystemCP@@YAHH@Z       000000018001a1b4 f   libucrt:mbctype.obj
 0001:00019234       ?setSBCS@@YAXPEAU__crt_multibyte_data@@@Z 000000018001a234 f   libucrt:mbctype.obj
 0001:000192c4       ?setSBUpLow@@YAXPEAU__crt_multibyte_data@@@Z 000000018001a2c4 f   libucrt:mbctype.obj
 0001:000194a8       ?setmbcp_internal@@YAHH_N@Z 000000018001a4a8 f   libucrt:mbctype.obj
 0001:000199f0       ?x_ismbbtype_l@@YAHPEAU__crt_locale_pointers@@IHH@Z 000000018001a9f0 f   libucrt:ismbbyte.obj
 0001:00019ba8       ??$common_set_variable_in_environment_nolock@D@@YAHQEADH@Z 000000018001aba8 f   libucrt:setenv.obj
 0001:00019e98       ??$copy_environment@D@@YAPEAPEADQEAPEAD@Z 000000018001ae98 f   libucrt:setenv.obj
 0001:0001a054       ?initialize_inherited_file_handles_nolock@@YAXXZ 000000018001b054 f   libucrt:ioinit.obj
 0001:0001a140       ?initialize_stdio_handles_nolock@@YAXXZ 000000018001b140 f   libucrt:ioinit.obj
 0001:0001aaa4       ?fp_format_a@@YAHQEBNPEAD_KQEAD2H_NIQEAU__crt_locale_pointers@@@Z 000000018001baa4 f   libucrt:cvt.obj
 0001:0001ae04       ?fp_format_e@@YAHQEBNQEAD_K12H_NIQEAU__crt_locale_pointers@@@Z 000000018001be04 f   libucrt:cvt.obj
 0001:0001aed4       ?fp_format_e_internal@@YAHQEAD_KH_NIQEAU_strflt@@2QEAU__crt_locale_pointers@@@Z 000000018001bed4 f   libucrt:cvt.obj
 0001:0001b0b0       ?fp_format_f_internal@@YAHQEAD_KHQEAU_strflt@@_NQEAU__crt_locale_pointers@@@Z 000000018001c0b0 f   libucrt:cvt.obj
 0001:0001b1f8       ?fp_format_g@@YAHQEBNQEAD_K12H_NIQEAU__crt_locale_pointers@@@Z 000000018001c1f8 f   libucrt:cvt.obj
 0001:0001b330       ?fp_format_nan_or_infinity@@YAHW4__acrt_fp_class@@_NPEAD_K1@Z 000000018001c330 f   libucrt:cvt.obj
 0001:0001b8fc       ??$common_getenv_nolock@D@@YAPEADQEBD@Z 000000018001c8fc f   libucrt:getenv.obj
 0001:0001b984       ??$common_getenv_s@D@@YAHQEA_KQEAD_KQEBD@Z 000000018001c984 f   libucrt:getenv.obj
 0001:0001bda4       ?write_double_translated_ansi_nolock@@YA?AUwrite_result@?A0x9c548279@@HQEBDI@Z 000000018001cda4 f   libucrt:write.obj
 0001:0001bfac       ?write_text_ansi_nolock@@YA?AUwrite_result@?A0x9c548279@@HQEBDI@Z 000000018001cfac f   libucrt:write.obj
 0001:0001c0b4       ?write_text_utf16le_nolock@@YA?AUwrite_result@?A0x9c548279@@HQEBDI@Z 000000018001d0b4 f   libucrt:write.obj
 0001:0001c1d0       ?write_text_utf8_nolock@@YA?AUwrite_result@?A0x9c548279@@HQEBDI@Z 000000018001d1d0 f   libucrt:write.obj
 0001:0001ce64       ?free_crt_array_internal@@YAXQEAPEBX_K@Z 000000018001de64 f   libucrt:inittime.obj
 0001:0001cfc4       ?GetTableIndexFromLocaleName@@YAHPEB_W@Z 000000018001dfc4 f   libucrt:lcidtoname_downlevel.obj
 0001:0001d0c0       ?shortsort@@YAXPEAD0_KP6AHPEBX2@Z@Z 000000018001e0c0 f   libucrt:qsort.obj
 0001:0001d604       ?initialize_multibyte@@YAHXZ 000000018001e604 f   libucrt:multibyte_initializer.obj
 0001:0001f46c       memcpy_s                   000000018002046c f   libucrt:cfout.obj
 0001:0001f4f4       ??$write_buffer_nolock@D@@YA_NDV__crt_stdio_stream@@@Z 00000001800204f4 f   libucrt:_flsbuf.obj
 0001:0001f5f8       ??$write_buffer_nolock@_W@@YA_N_WV__crt_stdio_stream@@@Z 00000001800205f8 f   libucrt:_flsbuf.obj
 0001:0001f9c8       ??$common_lseek@_J@@YA_JH_JH@Z 00000001800209c8 f   libucrt:lseek.obj
 0001:0001fab8       ??$common_lseek_nolock@_J@@YA_JH_JH@Z 0000000180020ab8 f   libucrt:lseek.obj
 0001:0001fd34       ?InternalCompareStringA@@YAHPEAU__crt_locale_pointers@@PEB_WKPEBDH2HH@Z 0000000180020d34 f   libucrt:comparestringa.obj
 0001:000202e0       $$000000                   00000001800212e0     libucrt:log10.obj
 0001:00020c94       common_control87           0000000180021c94 f   libucrt:ieee.obj
 0001:00020f2c       _call_matherr              0000000180021f2c f   libucrt:libm_error.obj
 0001:00020f94       _exception_enabled         0000000180021f94 f   libucrt:libm_error.obj
 0001:00021230       _log_special_common        0000000180022230 f   libucrt:log_special.obj
 0001:000212d0       $$000000                   00000001800222d0     libucrt:fpsr.obj
 0001:00021f80       $$000000                   0000000180022f80     LIBCMT:_chkstk_.obj
 0001:00021ff0       $$000000                   0000000180022ff0     libvcruntime:memcpy.obj
 0001:00022097       MoveSmall                  0000000180023097     libvcruntime:memcpy.obj
 0001:00022440       $$000000                   0000000180023440     libvcruntime:memcmp.obj
 0001:000226f0       $$000000                   00000001800236f0     LIBCMT:_guard_dispatch_.obj
 0001:00022710       __scrt_is_nonwritable_in_current_image$filt$0 0000000180023710 f   LIBCMT:utility.obj
 0001:00022728       ?fin$0@?0??dllmain_crt_process_attach@@YAHQEAUHINSTANCE__@@QEAX@Z@4HA 0000000180023728 f   LIBCMT:dll_dllmain.obj
 0001:0002273f       ?fin$0@?0??dllmain_crt_process_detach@@YAH_N@Z@4HA 000000018002373f f   LIBCMT:dll_dllmain.obj
 0001:0002275b       ?filt$0@?0??dllmain_dispatch@@YAHQEAUHINSTANCE__@@KQEAX@Z@4HA 000000018002375b f   LIBCMT:dll_dllmain.obj
 0001:00022791       _query_new_handler$fin$0   0000000180023791 f   libucrt:new_handler.obj
 0001:000227a7       ?filt$0@?0??common_exit@@YAXHW4_crt_exit_cleanup_mode@@W4_crt_exit_return_mode@@@Z@4HA 00000001800237a7 f   libucrt:exit.obj
 0001:000227c2       ?fin$1@?0??common_exit@@YAXHW4_crt_exit_cleanup_mode@@W4_crt_exit_return_mode@@@Z@4HA 00000001800237c2 f   libucrt:exit.obj
 0001:000227db       ?fin$0@?0???$?RV<lambda_fb3a7dec4e47f37f22dae91bb15c9095>@@AEAV<lambda_698284760c8add0bfb0756c19673e34b>@@V<lambda_dfb8eca1e75fef3034a8fb18dd509707>@@@?$__crt_seh_guarded_call@X@@QEAAX$$QEAV<lambda_fb3a7dec4e47f37f22dae91bb15c9095>@@AEAV<lambda_698284760c8add0bfb0756c19673e34b>@@$$QEAV<lambda_dfb8eca1e75fef3034a8fb18dd509707>@@@Z@4HA 00000001800237db f   libucrt:per_thread_data.obj
 0001:000227db       ?fin$0@?0???$?RV<lambda_c36588078e9f5dfd39652860aa6b3aaf>@@AEAV<lambda_ec61778202f4f5fc7e7711acc23c3bca>@@V<lambda_dc9d2797ccde5d239b4a0efae8ebd7db>@@@?$__crt_seh_guarded_call@P6AXH@Z@@QEAAP6AXH@Z$$QEAV<lambda_c36588078e9f5dfd39652860aa6b3aaf>@@AEAV<lambda_ec61778202f4f5fc7e7711acc23c3bca>@@$$QEAV<lambda_dc9d2797ccde5d239b4a0efae8ebd7db>@@@Z@4HA 00000001800237db f   libucrt:signal.obj
 0001:000227db       ?fin$0@?0???$?RV<lambda_99476a1ad63dd22509b5d3e65b0ffc95>@@AEAV<lambda_ad1ced32f4ac17aa236e5ef05d6b3b7c>@@V<lambda_f7424dd8d45958661754dc4f2697e9c3>@@@?$__crt_seh_guarded_call@X@@QEAAX$$QEAV<lambda_99476a1ad63dd22509b5d3e65b0ffc95>@@AEAV<lambda_ad1ced32f4ac17aa236e5ef05d6b3b7c>@@$$QEAV<lambda_f7424dd8d45958661754dc4f2697e9c3>@@@Z@4HA 00000001800237db f   libucrt:mbctype.obj
 0001:000227db       ?fin$0@?0???$?RV<lambda_b8c45f8f788dd370798f47cfe8ac3a86>@@AEAV<lambda_4e60a939b0d047cfe11ddc22648dfba9>@@V<lambda_332c3edc96d0294ec56c57d38c1cdfd5>@@@?$__crt_seh_guarded_call@H@@QEAAH$$QEAV<lambda_b8c45f8f788dd370798f47cfe8ac3a86>@@AEAV<lambda_4e60a939b0d047cfe11ddc22648dfba9>@@$$QEAV<lambda_332c3edc96d0294ec56c57d38c1cdfd5>@@@Z@4HA 00000001800237db f   libucrt:onexit.obj
 0001:000227db       ?fin$0@?0???$?RV<lambda_46352004c1216016012b18bd6f87e700>@@AEAV<lambda_3bd07e1a1191394380780325891bf33f>@@V<lambda_334532d3f185bcaa59b5be82d7d22bff>@@@?$__crt_seh_guarded_call@X@@QEAAX$$QEAV<lambda_46352004c1216016012b18bd6f87e700>@@AEAV<lambda_3bd07e1a1191394380780325891bf33f>@@$$QEAV<lambda_334532d3f185bcaa59b5be82d7d22bff>@@@Z@4HA 00000001800237db f   libucrt:per_thread_data.obj
 0001:000227db       ?fin$0@?0???$?RV<lambda_72d1df2b273a38828b1ce30cbf4cdab5>@@AEAV<lambda_876a65b173b8412d3a47c70a915b0cf4>@@V<lambda_41932305e351933ebe8f8be3ed8bb5dc>@@@?$__crt_seh_guarded_call@X@@QEAAX$$QEAV<lambda_72d1df2b273a38828b1ce30cbf4cdab5>@@AEAV<lambda_876a65b173b8412d3a47c70a915b0cf4>@@$$QEAV<lambda_41932305e351933ebe8f8be3ed8bb5dc>@@@Z@4HA 00000001800237db f   libucrt:per_thread_data.obj
 0001:000227db       ?fin$0@?0???$?RV<lambda_5e887d1dcbef67a5eb4283622ba103bf>@@AEAV<lambda_4466841279450cc726390878d4a41900>@@V<lambda_341c25c0346d94847f1f3c463c57e077>@@@?$__crt_seh_guarded_call@X@@QEAAX$$QEAV<lambda_5e887d1dcbef67a5eb4283622ba103bf>@@AEAV<lambda_4466841279450cc726390878d4a41900>@@$$QEAV<lambda_341c25c0346d94847f1f3c463c57e077>@@@Z@4HA 00000001800237db f   libucrt:per_thread_data.obj
 0001:000227f5       ?fin$0@?0???$?RV<lambda_e24bbb7b643b32fcea6fa61b31d4c984>@@AEAV<lambda_275893d493268fdec8709772e3fcec0e>@@V<lambda_9d71df4d7cf3f480f8d633942495c3b0>@@@?$__crt_seh_guarded_call@H@@QEAAH$$QEAV<lambda_e24bbb7b643b32fcea6fa61b31d4c984>@@AEAV<lambda_275893d493268fdec8709772e3fcec0e>@@$$QEAV<lambda_9d71df4d7cf3f480f8d633942495c3b0>@@@Z@4HA 00000001800237f5 f   libucrt:onexit.obj
 0001:00022812       ?fin$0@?0???$?RV<lambda_7b91131dde12e1c3dfc74ff76b3f2eac>@@AEAV<lambda_dd75445284c072d0bd3768540cc698fa>@@V<lambda_16bc4ecb55b4718497c16bceaea2ceaf>@@@?$__crt_seh_guarded_call@H@@QEAAH$$QEAV<lambda_7b91131dde12e1c3dfc74ff76b3f2eac>@@AEAV<lambda_dd75445284c072d0bd3768540cc698fa>@@$$QEAV<lambda_16bc4ecb55b4718497c16bceaea2ceaf>@@@Z@4HA 0000000180023812 f   libucrt:output.obj
 0001:00022812       ?fin$0@?0???$?RV<lambda_7a5ef57ff966f610505f1d28a3d40618>@@AEAV<lambda_b721fa326cdb32351d23dfa67958c160>@@V<lambda_5e0fb27672408a07956fe59e48ccb2aa>@@@?$__crt_seh_guarded_call@H@@QEAAH$$QEAV<lambda_7a5ef57ff966f610505f1d28a3d40618>@@AEAV<lambda_b721fa326cdb32351d23dfa67958c160>@@$$QEAV<lambda_5e0fb27672408a07956fe59e48ccb2aa>@@@Z@4HA 0000000180023812 f   libucrt:setvbuf.obj
 0001:0002282d       _isindst$fin$0             000000018002382d f   libucrt:tzset.obj
 0001:0002282d       __tzset$fin$0              000000018002382d f   libucrt:tzset.obj
 0001:00022846       common_flush_all$fin$0     0000000180023846 f   libucrt:fflush.obj
 0001:00022860       common_flush_all$fin$1     0000000180023860 f   libucrt:fflush.obj
 0001:00022879       raise$fin$0                0000000180023879 f   libucrt:signal.obj
 0001:0002289d       __acrt_update_thread_locale_data$fin$0 000000018002389d f   libucrt:locale_refcounting.obj
 0001:0002289d       __acrt_uninitialize_locale$fin$0 000000018002389d f   libucrt:wsetlocale.obj
 0001:000228b6       __acrt_update_thread_multibyte_data$fin$0 00000001800238b6 f   libucrt:mbctype.obj
 0001:000228cf       ?fin$0@?0???$common_getenv_s@D@@YAHQEA_KQEAD_KQEBD@Z@4HA 00000001800238cf f   libucrt:getenv.obj
 0001:000228e8       _fcloseall$fin$0           00000001800238e8 f   libucrt:closeall.obj
 0001:00022901       ?fin$0@?0???$common_lseek@_J@@YA_JH_JH@Z@4HA 0000000180023901 f   libucrt:lseek.obj
 0001:00022901       _write$fin$0               0000000180023901 f   libucrt:write.obj
 0001:00022918       __acrt_initialize_lowio$fin$0 0000000180023918 f   libucrt:ioinit.obj
 0001:00022918       __acrt_lowio_ensure_fh_exists$fin$0 0000000180023918 f   libucrt:osfinfo.obj
 0001:00022931       fflush$fin$0               0000000180023931 f   libucrt:fflush.obj
 0001:00022931       fclose$fin$0               0000000180023931 f   libucrt:fclose.obj
 0001:00022949       ?fin$0@?0???$?RV<lambda_bfedae4ebbf01fab1bb6dcc6a9e276e0>@@AEAV<lambda_2fe9b910cf3cbf4a0ab98a02ba45b3ec>@@V<lambda_237c231691f317818eb88cc1d5d642d6>@@@?$__crt_seh_guarded_call@H@@QEAAH$$QEAV<lambda_bfedae4ebbf01fab1bb6dcc6a9e276e0>@@AEAV<lambda_2fe9b910cf3cbf4a0ab98a02ba45b3ec>@@$$QEAV<lambda_237c231691f317818eb88cc1d5d642d6>@@@Z@4HA 0000000180023949 f   libucrt:close.obj
 0001:00022949       ?fin$0@?0???$?RV<lambda_b521505b218e5242e90febf6bfebc422>@@AEAV<lambda_6978c1fb23f02e42e1d9e99668cc68aa>@@V<lambda_314360699dd331753a4119843814e9a7>@@@?$__crt_seh_guarded_call@H@@QEAAH$$QEAV<lambda_b521505b218e5242e90febf6bfebc422>@@AEAV<lambda_6978c1fb23f02e42e1d9e99668cc68aa>@@$$QEAV<lambda_314360699dd331753a4119843814e9a7>@@@Z@4HA 0000000180023949 f   libucrt:commit.obj
 0001:00022963       common_control87$filt$0    0000000180023963 f   libucrt:ieee.obj
 0001:00022963       _ctrlfp$filt$0             0000000180023963 f   libucrt:fpctrl.obj
 0001:00022990       _IsNonwritableInCurrentImage$filt$0 0000000180023990 f   LIBCMT:pesect.obj
 0001:000229b0       ??__F?constructor@ODBC@@2V?$Persistent@VFunction@v8@@V?$NonCopyablePersistentTraits@VFunction@v8@@@2@@Nan@@A@@YAXXZ 00000001800239b0 f   odbc.obj
 0001:000229c0       ??__F?constructor@ODBCConnection@@2V?$Persistent@VFunction@v8@@V?$NonCopyablePersistentTraits@VFunction@v8@@@2@@Nan@@A@@YAXXZ 00000001800239c0 f   odbc_connection.obj
 0001:000229d0       ??__F?OPTION_SQL@ODBCConnection@@2V?$Persistent@VString@v8@@V?$NonCopyablePersistentTraits@VString@v8@@@2@@Nan@@A@@YAXXZ 00000001800239d0 f   odbc_connection.obj
 0001:000229e0       ??__F?OPTION_PARAMS@ODBCConnection@@2V?$Persistent@VString@v8@@V?$NonCopyablePersistentTraits@VString@v8@@@2@@Nan@@A@@YAXXZ 00000001800239e0 f   odbc_connection.obj
 0001:000229f0       ??__F?OPTION_NORESULTS@ODBCConnection@@2V?$Persistent@VString@v8@@V?$NonCopyablePersistentTraits@VString@v8@@@2@@Nan@@A@@YAXXZ 00000001800239f0 f   odbc_connection.obj
 0001:00022a00       ??__F?constructor@ODBCStatement@@2V?$Persistent@VFunction@v8@@V?$NonCopyablePersistentTraits@VFunction@v8@@@2@@Nan@@A@@YAXXZ 0000000180023a00 f   odbc_statement.obj
 0001:00022a10       ??__F?constructor@ODBCResult@@2V?$Persistent@VFunction@v8@@V?$NonCopyablePersistentTraits@VFunction@v8@@@2@@Nan@@A@@YAXXZ 0000000180023a10 f   odbc_result.obj
 0001:00022a20       ??__F?OPTION_FETCH_MODE@ODBCResult@@2V?$Persistent@VString@v8@@V?$NonCopyablePersistentTraits@VString@v8@@@2@@Nan@@A@@YAXXZ 0000000180023a20 f   odbc_result.obj
 0002:00000358       ??constructor$initializer$@ODBC@@2P6AXXZEA@@3P6AXXZEA 0000000180024358     odbc.obj
 0002:00000360       ??OPTION_PARAMS$initializer$@ODBCConnection@@2P6AXXZEA@@3P6AXXZEA 0000000180024360     odbc_connection.obj
 0002:00000368       ??OPTION_SQL$initializer$@ODBCConnection@@2P6AXXZEA@@3P6AXXZEA 0000000180024368     odbc_connection.obj
 0002:00000370       ??OPTION_NORESULTS$initializer$@ODBCConnection@@2P6AXXZEA@@3P6AXXZEA 0000000180024370     odbc_connection.obj
 0002:00000378       ??constructor$initializer$@ODBCConnection@@2P6AXXZEA@@3P6AXXZEA 0000000180024378     odbc_connection.obj
 0002:00000380       ??constructor$initializer$@ODBCStatement@@2P6AXXZEA@@3P6AXXZEA 0000000180024380     odbc_statement.obj
 0002:00000388       ??OPTION_FETCH_MODE$initializer$@ODBCResult@@2P6AXXZEA@@3P6AXXZEA 0000000180024388     odbc_result.obj
 0002:00000390       ??constructor$initializer$@ODBCResult@@2P6AXXZEA@@3P6AXXZEA 0000000180024390     odbc_result.obj
 0002:00000428       GS_ExceptionPointers       0000000180024428     LIBCMT:gs_report.obj
 0002:000004d0       ?ExceptionTemplate@?1??_CxxThrowException@@9@4UEHExceptionRecord@@B 00000001800244d0     libvcruntime:throw.obj
 0002:00000510       ?module_names@?A0xc6fdf113@@3QBQEB_WB 0000000180024510     libvcruntime:winapi_downlevel.obj
 0002:000005e0       ?candidate_modules@?1??try_get_FlsAlloc@@YAP6AKP6AXPEAX@Z@ZXZ@4QBW4module_id@?A0xc6fdf113@@B 00000001800245e0     libvcruntime:winapi_downlevel.obj
 0002:000005f8       ?candidate_modules@?1??try_get_FlsFree@@YAP6AHK@ZXZ@4QBW4module_id@?A0xc6fdf113@@B 00000001800245f8     libvcruntime:winapi_downlevel.obj
 0002:00000608       ?candidate_modules@?1??try_get_FlsGetValue@@YAP6APEAXK@ZXZ@4QBW4module_id@?A0xc6fdf113@@B 0000000180024608     libvcruntime:winapi_downlevel.obj
 0002:00000620       ?candidate_modules@?1??try_get_FlsSetValue@@YAP6AHKPEAX@ZXZ@4QBW4module_id@?A0xc6fdf113@@B 0000000180024620     libvcruntime:winapi_downlevel.obj
 0002:00000638       ?candidate_modules@?1??try_get_InitializeCriticalSectionEx@@YAP6AHPEAU_RTL_CRITICAL_SECTION@@KK@ZXZ@4QBW4module_id@?A0xc6fdf113@@B 0000000180024638     libvcruntime:winapi_downlevel.obj
 0002:00000660       ?tokenTable@@3QBQEBDB      0000000180024660     libvcruntime:undname.obj
 0002:000006d0       ?nameTable@@3QBQEBDB       00000001800246d0     libvcruntime:undname.obj
 0002:00000958       ?rttiTable@@3QBQEBDB       0000000180024958     libvcruntime:undname.obj
 0002:000013c0       __acrt_initializers        00000001800253c0     libucrt:initialization.obj
 0002:00001530       errtable                   0000000180025530     libucrt:errno.obj
 0002:00002480       module_names               0000000180026480     libucrt:winapi_thunks.obj
 0002:000029b0       ?candidate_modules@?1??try_get_CompareStringEx@@YAP6AHPEB_WK0H0HPEAU_nlsversioninfo@@PEAX_J@ZXZ@4QBW4module_id@?A0x63058377@@B 00000001800269b0     libucrt:winapi_thunks.obj
 0002:000029c8       ?candidate_modules@?1??try_get_FlsAlloc@@YAP6AKP6AXPEAX@Z@ZXZ@4QBW4module_id@?A0x63058377@@B 00000001800269c8     libucrt:winapi_thunks.obj
 0002:000029d0       ?candidate_modules@?1??try_get_FlsFree@@YAP6AHK@ZXZ@4QBW4module_id@?A0x63058377@@B 00000001800269d0     libucrt:winapi_thunks.obj
 0002:000029d8       ?candidate_modules@?1??try_get_FlsGetValue@@YAP6APEAXK@ZXZ@4QBW4module_id@?A0x63058377@@B 00000001800269d8     libucrt:winapi_thunks.obj
 0002:000029e0       ?candidate_modules@?1??try_get_FlsSetValue@@YAP6AHKPEAX@ZXZ@4QBW4module_id@?A0x63058377@@B 00000001800269e0     libucrt:winapi_thunks.obj
 0002:000029e8       ?candidate_modules@?1??try_get_GetActiveWindow@@YAP6APEAUHWND__@@XZXZ@4QBW4module_id@?A0x63058377@@B 00000001800269e8     libucrt:winapi_thunks.obj
 0002:00002a00       ?candidate_modules@?1??try_get_GetCurrentPackageId@@YAP6AJPEAIPEAE@ZXZ@4QBW4module_id@?A0x63058377@@B 0000000180026a00     libucrt:winapi_thunks.obj
 0002:00002a20       ?candidate_modules@?1??try_get_GetLastActivePopup@@YAP6APEAUHWND__@@PEAU2@@ZXZ@4QBW4module_id@?A0x63058377@@B 0000000180026a20     libucrt:winapi_thunks.obj
 0002:00002a40       ?candidate_modules@?1??try_get_GetProcessWindowStation@@YAP6APEAUHWINSTA__@@XZXZ@4QBW4module_id@?A0x63058377@@B 0000000180026a40     libucrt:winapi_thunks.obj
 0002:00002a60       ?candidate_modules@?1??try_get_GetUserObjectInformationW@@YAP6AHPEAXH0KPEAK@ZXZ@4QBW4module_id@?A0x63058377@@B 0000000180026a60     libucrt:winapi_thunks.obj
 0002:00002a88       ?candidate_modules@?1??try_get_InitializeCriticalSectionEx@@YAP6AHPEAU_RTL_CRITICAL_SECTION@@KK@ZXZ@4QBW4module_id@?A0x63058377@@B 0000000180026a88     libucrt:winapi_thunks.obj
 0002:00002a90       ?candidate_modules@?1??try_get_LCMapStringEx@@YAP6AHPEB_WK0HPEA_WHPEAU_nlsversioninfo@@PEAX_J@ZXZ@4QBW4module_id@?A0x63058377@@B 0000000180026a90     libucrt:winapi_thunks.obj
 0002:00002aa8       ?candidate_modules@?1??try_get_LocaleNameToLCID@@YAP6AKPEB_WK@ZXZ@4QBW4module_id@?A0x63058377@@B 0000000180026aa8     libucrt:winapi_thunks.obj
 0002:00002ac8       ?candidate_modules@?1??try_get_MessageBoxA@@YAP6AHPEAUHWND__@@PEBD1I@ZXZ@4QBW4module_id@?A0x63058377@@B 0000000180026ac8     libucrt:winapi_thunks.obj
 0002:00002ae0       ?candidate_modules@?1??try_get_MessageBoxW@@YAP6AHPEAUHWND__@@PEB_W1I@ZXZ@4QBW4module_id@?A0x63058377@@B 0000000180026ae0     libucrt:winapi_thunks.obj
 0002:00002af8       _mb_locale_names           0000000180026af8     libucrt:mbctype.obj
 0002:00002bc0       LcidToLocaleNameTable      0000000180026bc0     libucrt:lcidtoname_downlevel.obj
 0002:00004620       LocaleNameToIndexTable     0000000180028620     libucrt:lcidtoname_downlevel.obj
 0002:000068b0       __real_ninf                000000018002a8b0     libucrt:log10.obj
 0002:000068c0       __real_inf                 000000018002a8c0     libucrt:log10.obj
 0002:000068d0       __real_neg_qnan            000000018002a8d0     libucrt:log10.obj
 0002:000068e0       __real_qnanbit             000000018002a8e0     libucrt:log10.obj
 0002:000068f0       __int_1023                 000000018002a8f0     libucrt:log10.obj
 0002:00006900       __mask_001                 000000018002a900     libucrt:log10.obj
 0002:00006910       __mask_mant                000000018002a910     libucrt:log10.obj
 0002:00006920       __mask_mant_top8           000000018002a920     libucrt:log10.obj
 0002:00006930       __mask_mant9               000000018002a930     libucrt:log10.obj
 0002:00006940       __real_log10_e             000000018002a940     libucrt:log10.obj
 0002:00006950       __real_log10_e_lead        000000018002a950     libucrt:log10.obj
 0002:00006960       __real_log10_e_tail        000000018002a960     libucrt:log10.obj
 0002:00006970       __real_log10_2_lead        000000018002a970     libucrt:log10.obj
 0002:00006980       __real_log10_2_tail        000000018002a980     libucrt:log10.obj
 0002:00006990       __real_two                 000000018002a990     libucrt:log10.obj
 0002:000069a0       __real_one                 000000018002a9a0     libucrt:log10.obj
 0002:000069b0       __real_half                000000018002a9b0     libucrt:log10.obj
 0002:000069c0       __mask_100                 000000018002a9c0     libucrt:log10.obj
 0002:000069d0       __real_1_over_512          000000018002a9d0     libucrt:log10.obj
 0002:000069e0       __real_1_over_2            000000018002a9e0     libucrt:log10.obj
 0002:000069f0       __real_1_over_3            000000018002a9f0     libucrt:log10.obj
 0002:00006a00       __real_1_over_4            000000018002aa00     libucrt:log10.obj
 0002:00006a10       __real_1_over_5            000000018002aa10     libucrt:log10.obj
 0002:00006a20       __real_1_over_6            000000018002aa20     libucrt:log10.obj
 0002:00006a30       __real_neg_1023            000000018002aa30     libucrt:log10.obj
 0002:00006a40       __mask_2045                000000018002aa40     libucrt:log10.obj
 0002:00006a50       __real_threshold           000000018002aa50     libucrt:log10.obj
 0002:00006a60       __real_near_one_lt         000000018002aa60     libucrt:log10.obj
 0002:00006a70       __real_near_one_gt         000000018002aa70     libucrt:log10.obj
 0002:00006a80       __real_min_norm            000000018002aa80     libucrt:log10.obj
 0002:00006a90       __real_notsign             000000018002aa90     libucrt:log10.obj
 0002:00006aa0       __real_ca1                 000000018002aaa0     libucrt:log10.obj
 0002:00006ab0       __real_ca2                 000000018002aab0     libucrt:log10.obj
 0002:00006ac0       __real_ca3                 000000018002aac0     libucrt:log10.obj
 0002:00006ad0       __real_ca4                 000000018002aad0     libucrt:log10.obj
 0002:00006ae0       __mask_lower               000000018002aae0     libucrt:log10.obj
 0002:00006af0       __flag_x_zero              000000018002aaf0     libucrt:log10.obj
 0002:00006af4       __flag_x_neg               000000018002aaf4     libucrt:log10.obj
 0002:00006af8       __flag_x_nan               000000018002aaf8     libucrt:log10.obj
 0002:00008350       __real@433fffffffffffff    000000018002c350     libucrt:fpsr.obj
 0002:00008358       __real@c33fffffffffffff    000000018002c358     libucrt:fpsr.obj
 0002:000094c0       mon                        000000018002d4c0     strptime.obj
 0002:00009520       abday                      000000018002d520     strptime.obj
 0002:00009560       abmon                      000000018002d560     strptime.obj
 0002:000095c0       day                        000000018002d5c0     strptime.obj
 0002:00009cc8       $unwind$?FunctionCallbackWrapper@imp@Nan@@YAXAEBV?$FunctionCallbackInfo@VValue@v8@@@v8@@@Z 000000018002dcc8     odbc.obj
 0002:00009cd8       $unwind$?New@?$Factory@VFunctionTemplate@v8@@@imp@Nan@@SA?AV?$Local@VFunctionTemplate@v8@@@v8@@P6AXAEBV?$FunctionCallbackInfo@VValue@v8@@@3@@ZV?$Local@VValue@v8@@@5@V?$Local@VSignature@v8@@@5@@Z 000000018002dcd8     odbc.obj
 0002:00009ce8       $chain$0$?New@?$Factory@VFunctionTemplate@v8@@@imp@Nan@@SA?AV?$Local@VFunctionTemplate@v8@@@v8@@P6AXAEBV?$FunctionCallbackInfo@VValue@v8@@@3@@ZV?$Local@VValue@v8@@@5@V?$Local@VSignature@v8@@@5@@Z 000000018002dce8     odbc.obj
 0002:00009cfc       $chain$1$?New@?$Factory@VFunctionTemplate@v8@@@imp@Nan@@SA?AV?$Local@VFunctionTemplate@v8@@@v8@@P6AXAEBV?$FunctionCallbackInfo@VValue@v8@@@3@@ZV?$Local@VValue@v8@@@5@V?$Local@VSignature@v8@@@5@@Z 000000018002dcfc     odbc.obj
 0002:00009d10       $chain$2$?New@?$Factory@VFunctionTemplate@v8@@@imp@Nan@@SA?AV?$Local@VFunctionTemplate@v8@@@v8@@P6AXAEBV?$FunctionCallbackInfo@VValue@v8@@@3@@ZV?$Local@VValue@v8@@@5@V?$Local@VSignature@v8@@@5@@Z 000000018002dd10     odbc.obj
 0002:00009d20       $chain$3$?New@?$Factory@VFunctionTemplate@v8@@@imp@Nan@@SA?AV?$Local@VFunctionTemplate@v8@@@v8@@P6AXAEBV?$FunctionCallbackInfo@VValue@v8@@@3@@ZV?$Local@VValue@v8@@@5@V?$Local@VSignature@v8@@@5@@Z 000000018002dd20     odbc.obj
 0002:00009d30       $unwind$?Call@Callback@Nan@@QEBA?AV?$Local@VValue@v8@@@v8@@HQEAV34@@Z 000000018002dd30     odbc.obj
 0002:00009d44       $unwind$?SetPrototypeMethod@Nan@@YAXV?$Local@VFunctionTemplate@v8@@@v8@@PEBDP6AXAEBV?$FunctionCallbackInfo@VValue@v8@@@1@@Z@Z 000000018002dd44     odbc.obj
 0002:00009d54       $unwind$??$free_environment@D@@YAXQEAPEAD@Z 000000018002dd54     libucrt:environment_initialization.obj
 0002:00009d54       $unwind$??$free_environment@_W@@YAXQEAPEA_W@Z 000000018002dd54     libucrt:environment_initialization.obj
 0002:00009d54       $unwind$?Wrap@ObjectWrap@Nan@@IEAAXV?$Local@VObject@v8@@@v8@@@Z 000000018002dd54     odbc.obj
 0002:00009d60       $unwind$_clearfp           000000018002dd60     libucrt:ieee.obj
 0002:00009d60       $unwind$__acrt_allocate_buffer_for_argv 000000018002dd60     libucrt:argv_parsing.obj
 0002:00009d60       $unwind$??0?$output_processor@_WV?$string_output_adapter@_W@__crt_stdio_output@@V?$standard_base@_WV?$string_output_adapter@_W@__crt_stdio_output@@@2@@__crt_stdio_output@@QEAA@AEBV?$string_output_adapter@_W@1@_KQEB_WQEAU__crt_locale_pointers@@QEAD@Z 000000018002dd60     libucrt:output.obj
 0002:00009d60       $unwind$_clrfp             000000018002dd60     libucrt:fpctrl.obj
 0002:00009d60       $unwind$??1ODBCStatement@@MEAA@XZ 000000018002dd60     odbc_statement.obj
 0002:00009d60       $unwind$?UV_BeginTransaction@ODBCConnection@@KAXPEAUuv_work_s@@@Z 000000018002dd60     odbc_connection.obj
 0002:00009d60       $unwind$?type_case_integer@?$output_processor@_WV?$stream_output_adapter@_W@__crt_stdio_output@@V?$standard_base@_WV?$stream_output_adapter@_W@__crt_stdio_output@@@2@@__crt_stdio_output@@AEAA_NI_N@Z 000000018002dd60     libucrt:output.obj
 0002:00009d60       $unwind$_set_statfp        000000018002dd60     libucrt:fpctrl.obj
 0002:00009d60       $unwind$fesetenv           000000018002dd60     libucrt:fesetenv.obj
 0002:00009d60       $unwind$feholdexcept       000000018002dd60     libucrt:feholdexcept.obj
 0002:00009d60       $unwind$?DloadReleaseSectionWriteAccess@@YAXXZ 000000018002dd60     DelayImp:delayhlp.obj
 0002:00009d60       $unwind$?UV_Execute@ODBCStatement@@KAXPEAUuv_work_s@@@Z 000000018002dd60     odbc_statement.obj
 0002:00009d60       $unwind$__vcrt_freeptd     000000018002dd60     libvcruntime:per_thread_data.obj
 0002:00009d60       $unwind$??0?$output_processor@_WV?$stream_output_adapter@_W@__crt_stdio_output@@V?$standard_base@_WV?$stream_output_adapter@_W@__crt_stdio_output@@@2@@__crt_stdio_output@@QEAA@AEBV?$stream_output_adapter@_W@1@_KQEB_WQEAU__crt_locale_pointers@@QEAD@Z 000000018002dd60     libucrt:output.obj
 0002:00009d60       $unwind$__raise_securityfailure 000000018002dd60     LIBCMT:gs_report.obj
 0002:00009d60       $unwind$__acrt_freeptd     000000018002dd60     libucrt:per_thread_data.obj
 0002:00009d60       $unwind$__vcrt_uninitialize_locks 000000018002dd60     libvcruntime:locks.obj
 0002:00009d60       $unwind$?exit_or_terminate_process@@YAXI@Z 000000018002dd60     libucrt:exit.obj
 0002:00009d60       $unwind$__vcrt_initialize_locks 000000018002dd60     libvcruntime:locks.obj
 0002:00009d60       $unwind$__acrt_can_show_message_box 000000018002dd60     libucrt:winapi_thunks.obj
 0002:00009d60       $unwind$??_Gtype_info@@UEAAPEAXI@Z 000000018002dd60     LIBCMT:std_type_info_static.obj
 0002:00009d60       $unwind$__acrt_fp_strflt_to_string 000000018002dd60     libucrt:_fptostr.obj
 0002:00009d60       $unwind$__std_type_info_destroy_list 000000018002dd60     libvcruntime:std_type_info.obj
 0002:00009d60       $unwind$??2@YAPEAX_K@Z     000000018002dd60     LIBCMT:new_scalar.obj
 0002:00009d60       $unwind$__std_exception_destroy 000000018002dd60     libvcruntime:std_exception.obj
 0002:00009d60       $unwind$__acrt_initialize_locks 000000018002dd60     libucrt:locks.obj
 0002:00009d60       $unwind$??0exception@std@@QEAA@AEBV01@@Z 000000018002dd60     LIBCMT:throw_bad_alloc.obj
 0002:00009d60       $unwind$?UV_FetchAll@ODBCResult@@KAXPEAUuv_work_s@@@Z 000000018002dd60     odbc_result.obj
 0002:00009d60       $unwind$??$message_box_wait_thread@_W@@YAKQEAX@Z 000000018002dd60     libucrt:crtmbox.obj
 0002:00009d60       $unwind$??1ODBCConnection@@MEAA@XZ 000000018002dd60     odbc_connection.obj
 0002:00009d60       $unwind$??0bad_alloc@std@@QEAA@AEBV01@@Z 000000018002dd60     LIBCMT:throw_bad_alloc.obj
 0002:00009d60       $unwind$_calloc_base       000000018002dd60     libucrt:calloc_base.obj
 0002:00009d60       $unwind$__acrt_uninitialize_winapi_thunks 000000018002dd60     libucrt:winapi_thunks.obj
 0002:00009d60       $unwind$__acrt_uninitialize_locks 000000018002dd60     libucrt:locks.obj
 0002:00009d60       $unwind$??0bad_array_new_length@std@@QEAA@AEBV01@@Z 000000018002dd60     LIBCMT:throw_bad_alloc.obj
 0002:00009d60       $unwind$?UV_ExecuteDirect@ODBCStatement@@KAXPEAUuv_work_s@@@Z 000000018002dd60     odbc_statement.obj
 0002:00009d60       $unwind$__acrt_uninitialize_stdio 000000018002dd60     libucrt:_file.obj
 0002:00009d60       $unwind$_malloc_base       000000018002dd60     libucrt:malloc_base.obj
 0002:00009d60       $unwind$?UV_CreateStatement@ODBCConnection@@KAXPEAUuv_work_s@@@Z 000000018002dd60     odbc_connection.obj
 0002:00009d60       $unwind$?UV_ExecuteNonQuery@ODBCStatement@@KAXPEAUuv_work_s@@@Z 000000018002dd60     odbc_statement.obj
 0002:00009d60       $unwind$wcscpy_s           000000018002dd60     libucrt:wcscpy_s.obj
 0002:00009d60       $unwind$__scrt_uninitialize_crt 000000018002dd60     LIBCMT:utility.obj
 0002:00009d60       $unwind$wcscat_s           000000018002dd60     libucrt:wcscat_s.obj
 0002:00009d60       $unwind$?UV_Fetch@ODBCResult@@KAXPEAUuv_work_s@@@Z 000000018002dd60     odbc_result.obj
 0002:00009d60       $unwind$__scrt_initialize_crt 000000018002dd60     LIBCMT:utility.obj
 0002:00009d60       $unwind$__acrt_update_multibyte_info 000000018002dd60     libucrt:locale_update.obj
 0002:00009d60       $unwind$strcpy_s           000000018002dd60     libucrt:strcpy_s.obj
 0002:00009d60       $unwind$?UV_Prepare@ODBCStatement@@KAXPEAUuv_work_s@@@Z 000000018002dd60     odbc_statement.obj
 0002:00009d60       $unwind$__acrt_update_locale_info 000000018002dd60     libucrt:locale_update.obj
 0002:00009d60       $unwind$?Ref@ObjectWrap@Nan@@MEAAXXZ 000000018002dd60     odbc.obj
 0002:00009d60       $unwind$__scrt_release_startup_lock 000000018002dd60     LIBCMT:utility.obj
 0002:00009d60       $unwind$?Unref@ObjectWrap@Nan@@MEAAXXZ 000000018002dd60     odbc.obj
 0002:00009d60       $unwind$__acrt_stdio_allocate_buffer_nolock 000000018002dd60     libucrt:_getbuf.obj
 0002:00009d60       $unwind$_fflush_nolock     000000018002dd60     libucrt:fflush.obj
 0002:00009d60       $unwind$?WeakCallback@ObjectWrap@Nan@@CAXAEBV?$WeakCallbackInfo@VObjectWrap@Nan@@@v8@@@Z 000000018002dd60     odbc.obj
 0002:00009d60       $unwind$??1ODBC@@MEAA@XZ   000000018002dd60     odbc.obj
 0002:00009d60       $unwind$?load_exe_hook@@YAP6A_JXZIPEAUDelayLoadInfo@@@Z 000000018002dd60     win_delay_load_hook.obj
 0002:00009d60       $unwind$?Free@ODBCResult@@QEAAXXZ 000000018002dd60     odbc_result.obj
 0002:00009d60       $unwind$_onexit            000000018002dd60     LIBCMT:utility.obj
 0002:00009d60       $unwind$??1ODBCResult@@MEAA@XZ 000000018002dd60     odbc_result.obj
 0002:00009d60       $unwind$_setfpstatusword   000000018002dd60     libucrt:_fenvutils.obj
 0002:00009d60       $unwind$?UV_CreateConnection@ODBC@@KAXPEAUuv_work_s@@@Z 000000018002dd60     odbc.obj
 0002:00009d60       $unwind$uninitialize_allocated_memory 000000018002dd60     libucrt:initialization.obj
 0002:00009d60       $unwind$__acrt_stdio_free_buffer_nolock 000000018002dd60     libucrt:_freebuf.obj
 0002:00009d60       $unwind$??$common_get_or_create_environment_nolock@D@@YAPEAPEADXZ 000000018002dd60     libucrt:environment_initialization.obj
 0002:00009d60       $unwind$initialize_pointers 000000018002dd60     libucrt:initialization.obj
 0002:00009d60       $unwind$?type_case_integer@?$output_processor@_WV?$string_output_adapter@_W@__crt_stdio_output@@V?$standard_base@_WV?$string_output_adapter@_W@__crt_stdio_output@@@2@@__crt_stdio_output@@AEAA_NI_N@Z 000000018002dd60     libucrt:output.obj
 0002:00009d60       $unwind$fegetenv           000000018002dd60     libucrt:fegetenv.obj
 0002:00009d68       $unwind$??_GODBCStatement@@MEAAPEAXI@Z 000000018002dd68     odbc_statement.obj
 0002:00009d68       $unwind$__acrt_stdio_begin_temporary_buffering_nolock 000000018002dd68     libucrt:_sftbuf.obj
 0002:00009d68       $unwind$strncpy_s          000000018002dd68     libucrt:strncpy_s.obj
 0002:00009d68       $unwind$_updatetlocinfoEx_nolock 000000018002dd68     libucrt:locale_refcounting.obj
 0002:00009d68       $unwind$__acrt_uninitialize_lowio 000000018002dd68     libucrt:ioinit.obj
 0002:00009d68       $unwind$??_GODBCResult@@MEAAPEAXI@Z 000000018002dd68     odbc_result.obj
 0002:00009d68       $unwind$wcsncat_s          000000018002dd68     libucrt:wcsncat_s.obj
 0002:00009d68       $unwind$??_Gbad_array_new_length@std@@UEAAPEAXI@Z 000000018002dd68     LIBCMT:throw_bad_alloc.obj
 0002:00009d68       $unwind$??_Gbad_alloc@std@@UEAAPEAXI@Z 000000018002dd68     LIBCMT:throw_bad_alloc.obj
 0002:00009d68       $unwind$__acrt_FlsAlloc    000000018002dd68     libucrt:winapi_thunks.obj
 0002:00009d68       $unwind$??$common_initialize_environment_nolock@D@@YAHXZ 000000018002dd68     libucrt:environment_initialization.obj
 0002:00009d68       $unwind$__acrt_FlsFree     000000018002dd68     libucrt:winapi_thunks.obj
 0002:00009d68       $unwind$__acrt_FlsGetValue 000000018002dd68     libucrt:winapi_thunks.obj
 0002:00009d68       $unwind$??_GODBC@@MEAAPEAXI@Z 000000018002dd68     odbc.obj
 0002:00009d68       $unwind$??_GObjectWrap@Nan@@UEAAPEAXI@Z 000000018002dd68     odbc.obj
 0002:00009d68       $unwind$__acrt_invoke_user_matherr 000000018002dd68     libucrt:matherr.obj
 0002:00009d68       $unwind$_realloc_base      000000018002dd68     libucrt:realloc_base.obj
 0002:00009d68       $unwind$?DloadGetSRWLockFunctionPointers@@YAEXZ 000000018002dd68     DelayImp:delayhlp.obj
 0002:00009d68       $unwind$??_GODBCConnection@@MEAAPEAXI@Z 000000018002dd68     odbc_connection.obj
 0002:00009d68       $unwind$_fclose_nolock     000000018002dd68     libucrt:fclose.obj
 0002:00009d68       $unwind$??_Gexception@std@@UEAAPEAXI@Z 000000018002dd68     LIBCMT:throw_bad_alloc.obj
 0002:00009d68       $unwind$__acrt_errno_map_os_error 000000018002dd68     libucrt:errno.obj
 0002:00009d68       $unwind$_callnewh          000000018002dd68     libucrt:new_handler.obj
 0002:00009d68       $unwind$__acrt_get_parent_window 000000018002dd68     libucrt:winapi_thunks.obj
 0002:00009d68       $unwind$?force_decimal_point@__crt_stdio_output@@YAXPEADQEAU__crt_locale_pointers@@@Z 000000018002dd68     libucrt:output.obj
 0002:00009d68       $unwind$?DloadAcquireSectionWriteAccess@@YAXXZ 000000018002dd68     DelayImp:delayhlp.obj
 0002:00009d68       $unwind$__vcrt_FlsAlloc    000000018002dd68     libvcruntime:winapi_downlevel.obj
 0002:00009d68       $unwind$__vcrt_FlsFree     000000018002dd68     libvcruntime:winapi_downlevel.obj
 0002:00009d68       $unwind$__vcrt_FlsGetValue 000000018002dd68     libvcruntime:winapi_downlevel.obj
 0002:00009d68       $unwind$?internal_isupper_l@@YA_NHQEAU__crt_locale_pointers@@@Z 000000018002dd68     libucrt:tolower_toupper.obj
 0002:00009d68       $unwind$?replace_current_thread_locale_nolock@@YAXQEAU__acrt_ptd@@QEAU__crt_locale_data@@@Z 000000018002dd68     libucrt:per_thread_data.obj
 0002:00009d68       $unwind$?try_cor_exit_process@@YAXI@Z 000000018002dd68     libucrt:exit.obj
 0002:00009d68       $unwind$_close_nolock      000000018002dd68     libucrt:close.obj
 0002:00009d68       $unwind$??0_LocaleUpdate@@QEAA@QEAU__crt_locale_pointers@@@Z 000000018002dd68     libucrt:tolower_toupper.obj
 0002:00009d68       $unwind$??$common_xtox@K_W@@YAHKQEA_W_KI_N@Z 000000018002dd68     libucrt:xtoa.obj
 0002:00009d68       $unwind$?UV_EndTransaction@ODBCConnection@@KAXPEAUuv_work_s@@@Z 000000018002dd68     odbc_connection.obj
 0002:00009d68       $unwind$__acrt_getptd      000000018002dd68     libucrt:per_thread_data.obj
 0002:00009d74       $unwind$?Init@ODBC@@SAXV?$Local@VObject@v8@@@v8@@@Z 000000018002dd74     odbc.obj
 0002:00009d74       $unwind$?Init@ODBCStatement@@SAXV?$Local@VObject@v8@@@v8@@@Z 000000018002dd74     odbc_statement.obj
 0002:00009d84       $unwind$?New@ODBC@@SAXAEBV?$FunctionCallbackInfo@VValue@v8@@@Nan@@@Z 000000018002dd84     odbc.obj
 0002:00009d94       $unwind$?CreateConnection@ODBC@@SAXAEBV?$FunctionCallbackInfo@VValue@v8@@@Nan@@@Z 000000018002dd94     odbc.obj
 0002:00009da8       $unwind$?UV_AfterCreateConnection@ODBC@@KAXPEAUuv_work_s@@H@Z 000000018002dda8     odbc.obj
 0002:00009db8       $chain$1$?UV_AfterCreateConnection@ODBC@@KAXPEAUuv_work_s@@H@Z 000000018002ddb8     odbc.obj
 0002:00009dd0       $chain$2$?UV_AfterCreateConnection@ODBC@@KAXPEAUuv_work_s@@H@Z 000000018002ddd0     odbc.obj
 0002:00009de0       $unwind$?CreateConnectionSync@ODBC@@SAXAEBV?$FunctionCallbackInfo@VValue@v8@@@Nan@@@Z 000000018002dde0     odbc.obj
 0002:00009dec       $unwind$?GetColumns@ODBC@@SAPEAUColumn@@PEAXPEAF@Z 000000018002ddec     odbc.obj
 0002:00009e00       $chain$3$?GetColumns@ODBC@@SAPEAUColumn@@PEAXPEAF@Z 000000018002de00     odbc.obj
 0002:00009e18       $chain$4$?GetColumns@ODBC@@SAPEAUColumn@@PEAXPEAF@Z 000000018002de18     odbc.obj
 0002:00009e28       $unwind$?FreeColumns@ODBC@@SAXPEAUColumn@@PEAF@Z 000000018002de28     odbc.obj
 0002:00009e3c       $chain$0$?FreeColumns@ODBC@@SAXPEAUColumn@@PEAF@Z 000000018002de3c     odbc.obj
 0002:00009e50       $chain$1$?FreeColumns@ODBC@@SAXPEAUColumn@@PEAF@Z 000000018002de50     odbc.obj
 0002:00009e60       $unwind$?GetColumnValue@ODBC@@SA?AV?$Local@VValue@v8@@@v8@@PEAXUColumn@@PEAGH@Z 000000018002de60     odbc.obj
 0002:00009e7c       $chain$0$?GetColumnValue@ODBC@@SA?AV?$Local@VValue@v8@@@v8@@PEAXUColumn@@PEAGH@Z 000000018002de7c     odbc.obj
 0002:00009e90       $chain$1$?GetColumnValue@ODBC@@SA?AV?$Local@VValue@v8@@@v8@@PEAXUColumn@@PEAGH@Z 000000018002de90     odbc.obj
 0002:00009ea0       $chain$3$?GetColumnValue@ODBC@@SA?AV?$Local@VValue@v8@@@v8@@PEAXUColumn@@PEAGH@Z 000000018002dea0     odbc.obj
 0002:00009eb8       $chain$4$?GetColumnValue@ODBC@@SA?AV?$Local@VValue@v8@@@v8@@PEAXUColumn@@PEAGH@Z 000000018002deb8     odbc.obj
 0002:00009ec8       $unwind$?GetRecordTuple@ODBC@@SA?AV?$Local@VValue@v8@@@v8@@PEAXPEAUColumn@@PEAFPEAGH@Z 000000018002dec8     odbc.obj
 0002:00009ed8       $chain$3$?GetRecordTuple@ODBC@@SA?AV?$Local@VValue@v8@@@v8@@PEAXPEAUColumn@@PEAFPEAGH@Z 000000018002ded8     odbc.obj
 0002:00009ef8       $chain$4$?GetRecordTuple@ODBC@@SA?AV?$Local@VValue@v8@@@v8@@PEAXPEAUColumn@@PEAFPEAGH@Z 000000018002def8     odbc.obj
 0002:00009f08       $unwind$?GetRecordArray@ODBC@@SA?AV?$Local@VValue@v8@@@v8@@PEAXPEAUColumn@@PEAFPEAGH@Z 000000018002df08     odbc.obj
 0002:00009f1c       $chain$2$?GetRecordArray@ODBC@@SA?AV?$Local@VValue@v8@@@v8@@PEAXPEAUColumn@@PEAFPEAGH@Z 000000018002df1c     odbc.obj
 0002:00009f38       $chain$3$?GetRecordArray@ODBC@@SA?AV?$Local@VValue@v8@@@v8@@PEAXPEAUColumn@@PEAFPEAGH@Z 000000018002df38     odbc.obj
 0002:00009f48       $unwind$?GetParametersFromArray@ODBC@@SAPEAUParameter@@V?$Local@VArray@v8@@@v8@@PEAH@Z 000000018002df48     odbc.obj
 0002:00009f58       $chain$3$?GetParametersFromArray@ODBC@@SAPEAUParameter@@V?$Local@VArray@v8@@@v8@@PEAH@Z 000000018002df58     odbc.obj
 0002:00009f78       $chain$4$?GetParametersFromArray@ODBC@@SAPEAUParameter@@V?$Local@VArray@v8@@@v8@@PEAH@Z 000000018002df78     odbc.obj
 0002:00009f88       $unwind$?CallbackSQLError@ODBC@@SA?AV?$Local@VValue@v8@@@v8@@FPEAXPEADPEAVCallback@Nan@@@Z 000000018002df88     odbc.obj
 0002:00009f9c       $unwind$?GetSQLError@ODBC@@SA?AV?$Local@VObject@v8@@@v8@@FPEAXPEAD@Z 000000018002df9c     odbc.obj
 0002:00009fb4       $chain$2$?GetSQLError@ODBC@@SA?AV?$Local@VObject@v8@@@v8@@FPEAXPEAD@Z 000000018002dfb4     odbc.obj
 0002:00009fd0       $chain$3$?GetSQLError@ODBC@@SA?AV?$Local@VObject@v8@@@v8@@FPEAXPEAD@Z 000000018002dfd0     odbc.obj
 0002:00009fe4       $chain$4$?GetSQLError@ODBC@@SA?AV?$Local@VObject@v8@@@v8@@FPEAXPEAD@Z 000000018002dfe4     odbc.obj
 0002:00009ff4       $chain$5$?GetSQLError@ODBC@@SA?AV?$Local@VObject@v8@@@v8@@FPEAXPEAD@Z 000000018002dff4     odbc.obj
 0002:0000a004       $unwind$??$Unwrap@VODBCResult@@@ObjectWrap@Nan@@SAPEAVODBCResult@@V?$Local@VObject@v8@@@v8@@@Z 000000018002e004     odbc_result.obj
 0002:0000a004       $unwind$??$Unwrap@VODBCConnection@@@ObjectWrap@Nan@@SAPEAVODBCConnection@@V?$Local@VObject@v8@@@v8@@@Z 000000018002e004     odbc_connection.obj
 0002:0000a004       $unwind$??$Unwrap@VODBCStatement@@@ObjectWrap@Nan@@SAPEAVODBCStatement@@V?$Local@VObject@v8@@@v8@@@Z 000000018002e004     odbc_statement.obj
 0002:0000a004       $unwind$init               000000018002e004     odbc.obj
 0002:0000a004       $unwind$??$Unwrap@VODBC@@@ObjectWrap@Nan@@SAPEAVODBC@@V?$Local@VObject@v8@@@v8@@@Z 000000018002e004     odbc.obj
 0002:0000a00c       $unwind$?GetterCallbackWrapper@imp@Nan@@YAXV?$Local@VName@v8@@@v8@@AEBV?$PropertyCallbackInfo@VValue@v8@@@4@@Z 000000018002e00c     odbc_connection.obj
 0002:0000a018       $unwind$?SetterCallbackWrapper@imp@Nan@@YAXV?$Local@VName@v8@@@v8@@V?$Local@VValue@v8@@@4@AEBV?$PropertyCallbackInfo@X@4@@Z 000000018002e018     odbc_connection.obj
 0002:0000a024       $unwind$?ThrowError@Nan@@YAXPEBD@Z 000000018002e024     odbc_connection.obj
 0002:0000a024       $unwind$?ThrowTypeError@Nan@@YAXPEBD@Z 000000018002e024     odbc_connection.obj
 0002:0000a024       $unwind$?Free@ODBCStatement@@QEAAXXZ 000000018002e024     odbc_statement.obj
 0002:0000a02c       $unwind$?SetAccessor@Nan@@YAXV?$Local@VObjectTemplate@v8@@@v8@@V?$Local@VString@v8@@@3@P6AX1AEBV?$PropertyCallbackInfo@VValue@v8@@@1@@ZP6AX1V?$Local@VValue@v8@@@3@AEBV?$PropertyCallbackInfo@X@1@@Z4W4AccessControl@3@W4PropertyAttribute@3@V?$Local@VAccessorSignature@v8@@@3@@Z 000000018002e02c     odbc_connection.obj
 0002:0000a040       $unwind$?Init@ODBCConnection@@SAXV?$Local@VObject@v8@@@v8@@@Z 000000018002e040     odbc_connection.obj
 0002:0000a050       $unwind$?New@ODBCConnection@@SAXAEBV?$FunctionCallbackInfo@VValue@v8@@@Nan@@@Z 000000018002e050     odbc_connection.obj
 0002:0000a05c       $chain$0$?New@ODBCConnection@@SAXAEBV?$FunctionCallbackInfo@VValue@v8@@@Nan@@@Z 000000018002e05c     odbc_connection.obj
 0002:0000a070       $chain$1$?New@ODBCConnection@@SAXAEBV?$FunctionCallbackInfo@VValue@v8@@@Nan@@@Z 000000018002e070     odbc_connection.obj
 0002:0000a080       $unwind$_isleadbyte_l      000000018002e080     libucrt:_wctype.obj
 0002:0000a080       $unwind$?ConnectedGetter@ODBCConnection@@SAXV?$Local@VString@v8@@@v8@@AEBV?$PropertyCallbackInfo@VValue@v8@@@Nan@@@Z 000000018002e080     odbc_connection.obj
 0002:0000a080       $unwind$?getSystemCP@@YAHH@Z 000000018002e080     libucrt:mbctype.obj
 0002:0000a080       $unwind$isspace            000000018002e080     libucrt:_ctype.obj
 0002:0000a080       $unwind$isdigit            000000018002e080     libucrt:_ctype.obj
 0002:0000a088       $unwind$?ConnectTimeoutGetter@ODBCConnection@@SAXV?$Local@VString@v8@@@v8@@AEBV?$PropertyCallbackInfo@VValue@v8@@@Nan@@@Z 000000018002e088     odbc_connection.obj
 0002:0000a088       $unwind$?LoginTimeoutGetter@ODBCConnection@@SAXV?$Local@VString@v8@@@v8@@AEBV?$PropertyCallbackInfo@VValue@v8@@@Nan@@@Z 000000018002e088     odbc_connection.obj
 0002:0000a094       $unwind$?LoginTimeoutSetter@ODBCConnection@@SAXV?$Local@VString@v8@@@v8@@V?$Local@VValue@v8@@@3@AEBV?$PropertyCallbackInfo@X@Nan@@@Z 000000018002e094     odbc_connection.obj
 0002:0000a094       $unwind$?FetchModeSetter@ODBCResult@@SAXV?$Local@VString@v8@@@v8@@V?$Local@VValue@v8@@@3@AEBV?$PropertyCallbackInfo@X@Nan@@@Z 000000018002e094     odbc_result.obj
 0002:0000a094       $unwind$?ConnectTimeoutSetter@ODBCConnection@@SAXV?$Local@VString@v8@@@v8@@V?$Local@VValue@v8@@@3@AEBV?$PropertyCallbackInfo@X@Nan@@@Z 000000018002e094     odbc_connection.obj
 0002:0000a09c       $unwind$?Prepare@ODBCStatement@@SAXAEBV?$FunctionCallbackInfo@VValue@v8@@@Nan@@@Z 000000018002e09c     odbc_statement.obj
 0002:0000a09c       $unwind$?ExecuteDirect@ODBCStatement@@SAXAEBV?$FunctionCallbackInfo@VValue@v8@@@Nan@@@Z 000000018002e09c     odbc_statement.obj
 0002:0000a09c       $unwind$?Open@ODBCConnection@@SAXAEBV?$FunctionCallbackInfo@VValue@v8@@@Nan@@@Z 000000018002e09c     odbc_connection.obj
 0002:0000a0a8       $chain$4$?Open@ODBCConnection@@SAXAEBV?$FunctionCallbackInfo@VValue@v8@@@Nan@@@Z 000000018002e0a8     odbc_connection.obj
 0002:0000a0cc       $chain$5$?Open@ODBCConnection@@SAXAEBV?$FunctionCallbackInfo@VValue@v8@@@Nan@@@Z 000000018002e0cc     odbc_connection.obj
 0002:0000a0dc       $unwind$?UV_Open@ODBCConnection@@KAXPEAUuv_work_s@@@Z 000000018002e0dc     odbc_connection.obj
 0002:0000a0f0       $unwind$?UV_AfterOpen@ODBCConnection@@KAXPEAUuv_work_s@@H@Z 000000018002e0f0     odbc_connection.obj
 0002:0000a108       $unwind$?OpenSync@ODBCConnection@@SAXAEBV?$FunctionCallbackInfo@VValue@v8@@@Nan@@@Z 000000018002e108     odbc_connection.obj
 0002:0000a114       $chain$3$?OpenSync@ODBCConnection@@SAXAEBV?$FunctionCallbackInfo@VValue@v8@@@Nan@@@Z 000000018002e114     odbc_connection.obj
 0002:0000a134       $chain$4$?OpenSync@ODBCConnection@@SAXAEBV?$FunctionCallbackInfo@VValue@v8@@@Nan@@@Z 000000018002e134     odbc_connection.obj
 0002:0000a144       $unwind$?Execute@ODBCStatement@@SAXAEBV?$FunctionCallbackInfo@VValue@v8@@@Nan@@@Z 000000018002e144     odbc_statement.obj
 0002:0000a144       $unwind$?PrepareSync@ODBCStatement@@SAXAEBV?$FunctionCallbackInfo@VValue@v8@@@Nan@@@Z 000000018002e144     odbc_statement.obj
 0002:0000a144       $unwind$?CreateStatement@ODBCConnection@@SAXAEBV?$FunctionCallbackInfo@VValue@v8@@@Nan@@@Z 000000018002e144     odbc_connection.obj
 0002:0000a144       $unwind$?Close@ODBCConnection@@SAXAEBV?$FunctionCallbackInfo@VValue@v8@@@Nan@@@Z 000000018002e144     odbc_connection.obj
 0002:0000a144       $unwind$?ExecuteNonQuery@ODBCStatement@@SAXAEBV?$FunctionCallbackInfo@VValue@v8@@@Nan@@@Z 000000018002e144     odbc_statement.obj
 0002:0000a150       $chain$3$?Close@ODBCConnection@@SAXAEBV?$FunctionCallbackInfo@VValue@v8@@@Nan@@@Z 000000018002e150     odbc_connection.obj
 0002:0000a170       $chain$6$?Close@ODBCConnection@@SAXAEBV?$FunctionCallbackInfo@VValue@v8@@@Nan@@@Z 000000018002e170     odbc_connection.obj
 0002:0000a170       $chain$4$?Close@ODBCConnection@@SAXAEBV?$FunctionCallbackInfo@VValue@v8@@@Nan@@@Z 000000018002e170     odbc_connection.obj
 0002:0000a184       $chain$5$?Close@ODBCConnection@@SAXAEBV?$FunctionCallbackInfo@VValue@v8@@@Nan@@@Z 000000018002e184     odbc_connection.obj
 0002:0000a194       $unwind$?UV_Close@ODBCConnection@@KAXPEAUuv_work_s@@@Z 000000018002e194     odbc_connection.obj
 0002:0000a1a0       $unwind$?UV_AfterEndTransaction@ODBCConnection@@KAXPEAUuv_work_s@@H@Z 000000018002e1a0     odbc_connection.obj
 0002:0000a1a0       $unwind$?UV_AfterBeginTransaction@ODBCConnection@@KAXPEAUuv_work_s@@H@Z 000000018002e1a0     odbc_connection.obj
 0002:0000a1a0       $unwind$?UV_AfterClose@ODBCConnection@@KAXPEAUuv_work_s@@H@Z 000000018002e1a0     odbc_connection.obj
 0002:0000a1b8       $unwind$?CloseSync@ODBCConnection@@SAXAEBV?$FunctionCallbackInfo@VValue@v8@@@Nan@@@Z 000000018002e1b8     odbc_connection.obj
 0002:0000a1b8       $unwind$_mbsdec_l          000000018002e1b8     libucrt:mbsdec.obj
 0002:0000a1c4       $unwind$?CreateStatementSync@ODBCConnection@@SAXAEBV?$FunctionCallbackInfo@VValue@v8@@@Nan@@@Z 000000018002e1c4     odbc_connection.obj
 0002:0000a1e0       $chain$3$?CreateStatement@ODBCConnection@@SAXAEBV?$FunctionCallbackInfo@VValue@v8@@@Nan@@@Z 000000018002e1e0     odbc_connection.obj
 0002:0000a200       $chain$4$?CreateStatement@ODBCConnection@@SAXAEBV?$FunctionCallbackInfo@VValue@v8@@@Nan@@@Z 000000018002e200     odbc_connection.obj
 0002:0000a200       $chain$6$?CreateStatement@ODBCConnection@@SAXAEBV?$FunctionCallbackInfo@VValue@v8@@@Nan@@@Z 000000018002e200     odbc_connection.obj
 0002:0000a214       $chain$5$?CreateStatement@ODBCConnection@@SAXAEBV?$FunctionCallbackInfo@VValue@v8@@@Nan@@@Z 000000018002e214     odbc_connection.obj
 0002:0000a224       $unwind$?UV_AfterCreateStatement@ODBCConnection@@KAXPEAUuv_work_s@@H@Z 000000018002e224     odbc_connection.obj
 0002:0000a248       $unwind$?Query@ODBCConnection@@SAXAEBV?$FunctionCallbackInfo@VValue@v8@@@Nan@@@Z 000000018002e248     odbc_connection.obj
 0002:0000a260       $unwind$?UV_Query@ODBCConnection@@KAXPEAUuv_work_s@@@Z 000000018002e260     odbc_connection.obj
 0002:0000a270       $unwind$?UV_AfterQuery@ODBCConnection@@KAXPEAUuv_work_s@@H@Z 000000018002e270     odbc_connection.obj
 0002:0000a28c       $chain$1$?UV_AfterQuery@ODBCConnection@@KAXPEAUuv_work_s@@H@Z 000000018002e28c     odbc_connection.obj
 0002:0000a2a4       $chain$2$?UV_AfterQuery@ODBCConnection@@KAXPEAUuv_work_s@@H@Z 000000018002e2a4     odbc_connection.obj
 0002:0000a2b8       $chain$3$?UV_AfterQuery@ODBCConnection@@KAXPEAUuv_work_s@@H@Z 000000018002e2b8     odbc_connection.obj
 0002:0000a2c8       $unwind$?QuerySync@ODBCConnection@@SAXAEBV?$FunctionCallbackInfo@VValue@v8@@@Nan@@@Z 000000018002e2c8     odbc_connection.obj
 0002:0000a2f0       $unwind$?GetInfoSync@ODBCConnection@@SAXAEBV?$FunctionCallbackInfo@VValue@v8@@@Nan@@@Z 000000018002e2f0     odbc_connection.obj
 0002:0000a308       $unwind$?Columns@ODBCConnection@@SAXAEBV?$FunctionCallbackInfo@VValue@v8@@@Nan@@@Z 000000018002e308     odbc_connection.obj
 0002:0000a308       $unwind$?Tables@ODBCConnection@@SAXAEBV?$FunctionCallbackInfo@VValue@v8@@@Nan@@@Z 000000018002e308     odbc_connection.obj
 0002:0000a31c       $chain$0$?Tables@ODBCConnection@@SAXAEBV?$FunctionCallbackInfo@VValue@v8@@@Nan@@@Z 000000018002e31c     odbc_connection.obj
 0002:0000a330       $chain$1$?Tables@ODBCConnection@@SAXAEBV?$FunctionCallbackInfo@VValue@v8@@@Nan@@@Z 000000018002e330     odbc_connection.obj
 0002:0000a344       $chain$2$?Tables@ODBCConnection@@SAXAEBV?$FunctionCallbackInfo@VValue@v8@@@Nan@@@Z 000000018002e344     odbc_connection.obj
 0002:0000a354       $chain$3$?Tables@ODBCConnection@@SAXAEBV?$FunctionCallbackInfo@VValue@v8@@@Nan@@@Z 000000018002e354     odbc_connection.obj
 0002:0000a364       $unwind$?UV_Columns@ODBCConnection@@KAXPEAUuv_work_s@@@Z 000000018002e364     odbc_connection.obj
 0002:0000a364       $unwind$?UV_Bind@ODBCStatement@@KAXPEAUuv_work_s@@@Z 000000018002e364     odbc_statement.obj
 0002:0000a364       $unwind$?UV_Tables@ODBCConnection@@KAXPEAUuv_work_s@@@Z 000000018002e364     odbc_connection.obj
 0002:0000a370       $chain$0$?Columns@ODBCConnection@@SAXAEBV?$FunctionCallbackInfo@VValue@v8@@@Nan@@@Z 000000018002e370     odbc_connection.obj
 0002:0000a384       $chain$1$?Columns@ODBCConnection@@SAXAEBV?$FunctionCallbackInfo@VValue@v8@@@Nan@@@Z 000000018002e384     odbc_connection.obj
 0002:0000a398       $chain$2$?Columns@ODBCConnection@@SAXAEBV?$FunctionCallbackInfo@VValue@v8@@@Nan@@@Z 000000018002e398     odbc_connection.obj
 0002:0000a3a8       $chain$3$?Columns@ODBCConnection@@SAXAEBV?$FunctionCallbackInfo@VValue@v8@@@Nan@@@Z 000000018002e3a8     odbc_connection.obj
 0002:0000a3b8       $unwind$?BeginTransactionSync@ODBCConnection@@SAXAEBV?$FunctionCallbackInfo@VValue@v8@@@Nan@@@Z 000000018002e3b8     odbc_connection.obj
 0002:0000a3c4       $unwind$?BeginTransaction@ODBCConnection@@SAXAEBV?$FunctionCallbackInfo@VValue@v8@@@Nan@@@Z 000000018002e3c4     odbc_connection.obj
 0002:0000a3d4       $chain$0$?BeginTransaction@ODBCConnection@@SAXAEBV?$FunctionCallbackInfo@VValue@v8@@@Nan@@@Z 000000018002e3d4     odbc_connection.obj
 0002:0000a3e8       $chain$1$?BeginTransaction@ODBCConnection@@SAXAEBV?$FunctionCallbackInfo@VValue@v8@@@Nan@@@Z 000000018002e3e8     odbc_connection.obj
 0002:0000a3f8       $unwind$?EndTransactionSync@ODBCConnection@@SAXAEBV?$FunctionCallbackInfo@VValue@v8@@@Nan@@@Z 000000018002e3f8     odbc_connection.obj
 0002:0000a404       $chain$0$?EndTransactionSync@ODBCConnection@@SAXAEBV?$FunctionCallbackInfo@VValue@v8@@@Nan@@@Z 000000018002e404     odbc_connection.obj
 0002:0000a418       $chain$2$?EndTransactionSync@ODBCConnection@@SAXAEBV?$FunctionCallbackInfo@VValue@v8@@@Nan@@@Z 000000018002e418     odbc_connection.obj
 0002:0000a42c       $chain$3$?EndTransactionSync@ODBCConnection@@SAXAEBV?$FunctionCallbackInfo@VValue@v8@@@Nan@@@Z 000000018002e42c     odbc_connection.obj
 0002:0000a43c       $unwind$?EndTransaction@ODBCConnection@@SAXAEBV?$FunctionCallbackInfo@VValue@v8@@@Nan@@@Z 000000018002e43c     odbc_connection.obj
 0002:0000a44c       $chain$1$?EndTransaction@ODBCConnection@@SAXAEBV?$FunctionCallbackInfo@VValue@v8@@@Nan@@@Z 000000018002e44c     odbc_connection.obj
 0002:0000a464       $chain$2$?EndTransaction@ODBCConnection@@SAXAEBV?$FunctionCallbackInfo@VValue@v8@@@Nan@@@Z 000000018002e464     odbc_connection.obj
 0002:0000a474       $chain$0$?Free@ODBCStatement@@QEAAXXZ 000000018002e474     odbc_statement.obj
 0002:0000a488       $chain$1$?Free@ODBCStatement@@QEAAXXZ 000000018002e488     odbc_statement.obj
 0002:0000a49c       $chain$2$?Free@ODBCStatement@@QEAAXXZ 000000018002e49c     odbc_statement.obj
 0002:0000a4ac       $chain$3$?Free@ODBCStatement@@QEAAXXZ 000000018002e4ac     odbc_statement.obj
 0002:0000a4bc       $chain$4$?Free@ODBCStatement@@QEAAXXZ 000000018002e4bc     odbc_statement.obj
 0002:0000a4d4       $unwind$?New@ODBCStatement@@SAXAEBV?$FunctionCallbackInfo@VValue@v8@@@Nan@@@Z 000000018002e4d4     odbc_statement.obj
 0002:0000a4e4       $chain$1$?New@ODBCStatement@@SAXAEBV?$FunctionCallbackInfo@VValue@v8@@@Nan@@@Z 000000018002e4e4     odbc_statement.obj
 0002:0000a4fc       $chain$2$?New@ODBCStatement@@SAXAEBV?$FunctionCallbackInfo@VValue@v8@@@Nan@@@Z 000000018002e4fc     odbc_statement.obj
 0002:0000a50c       $chain$3$?Execute@ODBCStatement@@SAXAEBV?$FunctionCallbackInfo@VValue@v8@@@Nan@@@Z 000000018002e50c     odbc_statement.obj
 0002:0000a52c       $chain$6$?Execute@ODBCStatement@@SAXAEBV?$FunctionCallbackInfo@VValue@v8@@@Nan@@@Z 000000018002e52c     odbc_statement.obj
 0002:0000a52c       $chain$4$?Execute@ODBCStatement@@SAXAEBV?$FunctionCallbackInfo@VValue@v8@@@Nan@@@Z 000000018002e52c     odbc_statement.obj
 0002:0000a540       $chain$5$?Execute@ODBCStatement@@SAXAEBV?$FunctionCallbackInfo@VValue@v8@@@Nan@@@Z 000000018002e540     odbc_statement.obj
 0002:0000a550       $unwind$?UV_AfterExecute@ODBCStatement@@KAXPEAUuv_work_s@@H@Z 000000018002e550     odbc_statement.obj
 0002:0000a56c       $chain$1$?UV_AfterExecute@ODBCStatement@@KAXPEAUuv_work_s@@H@Z 000000018002e56c     odbc_statement.obj
 0002:0000a584       $chain$2$?UV_AfterExecute@ODBCStatement@@KAXPEAUuv_work_s@@H@Z 000000018002e584     odbc_statement.obj
 0002:0000a598       $chain$3$?UV_AfterExecute@ODBCStatement@@KAXPEAUuv_work_s@@H@Z 000000018002e598     odbc_statement.obj
 0002:0000a5a8       $chain$4$?UV_AfterExecute@ODBCStatement@@KAXPEAUuv_work_s@@H@Z 000000018002e5a8     odbc_statement.obj
 0002:0000a5b8       $unwind$?ExecuteSync@ODBCStatement@@SAXAEBV?$FunctionCallbackInfo@VValue@v8@@@Nan@@@Z 000000018002e5b8     odbc_statement.obj
 0002:0000a5d0       $chain$1$?ExecuteSync@ODBCStatement@@SAXAEBV?$FunctionCallbackInfo@VValue@v8@@@Nan@@@Z 000000018002e5d0     odbc_statement.obj
 0002:0000a5e8       $chain$2$?ExecuteSync@ODBCStatement@@SAXAEBV?$FunctionCallbackInfo@VValue@v8@@@Nan@@@Z 000000018002e5e8     odbc_statement.obj
 0002:0000a5f8       $chain$3$?ExecuteNonQuery@ODBCStatement@@SAXAEBV?$FunctionCallbackInfo@VValue@v8@@@Nan@@@Z 000000018002e5f8     odbc_statement.obj
 0002:0000a618       $chain$4$?ExecuteNonQuery@ODBCStatement@@SAXAEBV?$FunctionCallbackInfo@VValue@v8@@@Nan@@@Z 000000018002e618     odbc_statement.obj
 0002:0000a618       $chain$6$?ExecuteNonQuery@ODBCStatement@@SAXAEBV?$FunctionCallbackInfo@VValue@v8@@@Nan@@@Z 000000018002e618     odbc_statement.obj
 0002:0000a62c       $chain$5$?ExecuteNonQuery@ODBCStatement@@SAXAEBV?$FunctionCallbackInfo@VValue@v8@@@Nan@@@Z 000000018002e62c     odbc_statement.obj
 0002:0000a63c       $unwind$?UV_AfterExecuteNonQuery@ODBCStatement@@KAXPEAUuv_work_s@@H@Z 000000018002e63c     odbc_statement.obj
 0002:0000a650       $chain$1$?UV_AfterExecuteNonQuery@ODBCStatement@@KAXPEAUuv_work_s@@H@Z 000000018002e650     odbc_statement.obj
 0002:0000a668       $chain$2$?UV_AfterExecuteNonQuery@ODBCStatement@@KAXPEAUuv_work_s@@H@Z 000000018002e668     odbc_statement.obj
 0002:0000a67c       $chain$3$?UV_AfterExecuteNonQuery@ODBCStatement@@KAXPEAUuv_work_s@@H@Z 000000018002e67c     odbc_statement.obj
 0002:0000a690       $chain$4$?UV_AfterExecuteNonQuery@ODBCStatement@@KAXPEAUuv_work_s@@H@Z 000000018002e690     odbc_statement.obj
 0002:0000a6a0       $chain$5$?UV_AfterExecuteNonQuery@ODBCStatement@@KAXPEAUuv_work_s@@H@Z 000000018002e6a0     odbc_statement.obj
 0002:0000a6b0       $chain$6$?UV_AfterExecuteNonQuery@ODBCStatement@@KAXPEAUuv_work_s@@H@Z 000000018002e6b0     odbc_statement.obj
 0002:0000a6c0       $unwind$?ExecuteNonQuerySync@ODBCStatement@@SAXAEBV?$FunctionCallbackInfo@VValue@v8@@@Nan@@@Z 000000018002e6c0     odbc_statement.obj
 0002:0000a6cc       $chain$1$?ExecuteNonQuerySync@ODBCStatement@@SAXAEBV?$FunctionCallbackInfo@VValue@v8@@@Nan@@@Z 000000018002e6cc     odbc_statement.obj
 0002:0000a6e4       $chain$2$?ExecuteNonQuerySync@ODBCStatement@@SAXAEBV?$FunctionCallbackInfo@VValue@v8@@@Nan@@@Z 000000018002e6e4     odbc_statement.obj
 0002:0000a6f4       $chain$3$?ExecuteDirect@ODBCStatement@@SAXAEBV?$FunctionCallbackInfo@VValue@v8@@@Nan@@@Z 000000018002e6f4     odbc_statement.obj
 0002:0000a714       $chain$4$?ExecuteDirect@ODBCStatement@@SAXAEBV?$FunctionCallbackInfo@VValue@v8@@@Nan@@@Z 000000018002e714     odbc_statement.obj
 0002:0000a724       $unwind$?UV_AfterExecuteDirect@ODBCStatement@@KAXPEAUuv_work_s@@H@Z 000000018002e724     odbc_statement.obj
 0002:0000a740       $chain$1$?UV_AfterExecuteDirect@ODBCStatement@@KAXPEAUuv_work_s@@H@Z 000000018002e740     odbc_statement.obj
 0002:0000a758       $chain$2$?UV_AfterExecuteDirect@ODBCStatement@@KAXPEAUuv_work_s@@H@Z 000000018002e758     odbc_statement.obj
 0002:0000a76c       $chain$3$?UV_AfterExecuteDirect@ODBCStatement@@KAXPEAUuv_work_s@@H@Z 000000018002e76c     odbc_statement.obj
 0002:0000a77c       $chain$4$?UV_AfterExecuteDirect@ODBCStatement@@KAXPEAUuv_work_s@@H@Z 000000018002e77c     odbc_statement.obj
 0002:0000a78c       $unwind$?ExecuteDirectSync@ODBCStatement@@SAXAEBV?$FunctionCallbackInfo@VValue@v8@@@Nan@@@Z 000000018002e78c     odbc_statement.obj
 0002:0000a7a4       $chain$0$?ExecuteDirectSync@ODBCStatement@@SAXAEBV?$FunctionCallbackInfo@VValue@v8@@@Nan@@@Z 000000018002e7a4     odbc_statement.obj
 0002:0000a7b8       $chain$2$?ExecuteDirectSync@ODBCStatement@@SAXAEBV?$FunctionCallbackInfo@VValue@v8@@@Nan@@@Z 000000018002e7b8     odbc_statement.obj
 0002:0000a7d0       $chain$3$?ExecuteDirectSync@ODBCStatement@@SAXAEBV?$FunctionCallbackInfo@VValue@v8@@@Nan@@@Z 000000018002e7d0     odbc_statement.obj
 0002:0000a7e0       $chain$4$?ExecuteDirectSync@ODBCStatement@@SAXAEBV?$FunctionCallbackInfo@VValue@v8@@@Nan@@@Z 000000018002e7e0     odbc_statement.obj
 0002:0000a7f0       $chain$0$?PrepareSync@ODBCStatement@@SAXAEBV?$FunctionCallbackInfo@VValue@v8@@@Nan@@@Z 000000018002e7f0     odbc_statement.obj
 0002:0000a804       $chain$1$?PrepareSync@ODBCStatement@@SAXAEBV?$FunctionCallbackInfo@VValue@v8@@@Nan@@@Z 000000018002e804     odbc_statement.obj
 0002:0000a818       $chain$2$?PrepareSync@ODBCStatement@@SAXAEBV?$FunctionCallbackInfo@VValue@v8@@@Nan@@@Z 000000018002e818     odbc_statement.obj
 0002:0000a828       $chain$4$?PrepareSync@ODBCStatement@@SAXAEBV?$FunctionCallbackInfo@VValue@v8@@@Nan@@@Z 000000018002e828     odbc_statement.obj
 0002:0000a83c       $chain$5$?PrepareSync@ODBCStatement@@SAXAEBV?$FunctionCallbackInfo@VValue@v8@@@Nan@@@Z 000000018002e83c     odbc_statement.obj
 0002:0000a84c       $chain$3$?Prepare@ODBCStatement@@SAXAEBV?$FunctionCallbackInfo@VValue@v8@@@Nan@@@Z 000000018002e84c     odbc_statement.obj
 0002:0000a86c       $chain$4$?Prepare@ODBCStatement@@SAXAEBV?$FunctionCallbackInfo@VValue@v8@@@Nan@@@Z 000000018002e86c     odbc_statement.obj
 0002:0000a87c       $unwind$?UV_AfterPrepare@ODBCStatement@@KAXPEAUuv_work_s@@H@Z 000000018002e87c     odbc_statement.obj
 0002:0000a88c       $chain$0$?UV_AfterPrepare@ODBCStatement@@KAXPEAUuv_work_s@@H@Z 000000018002e88c     odbc_statement.obj
 0002:0000a8a0       $chain$1$?UV_AfterPrepare@ODBCStatement@@KAXPEAUuv_work_s@@H@Z 000000018002e8a0     odbc_statement.obj
 0002:0000a8b4       $chain$2$?UV_AfterPrepare@ODBCStatement@@KAXPEAUuv_work_s@@H@Z 000000018002e8b4     odbc_statement.obj
 0002:0000a8c4       $chain$3$?UV_AfterPrepare@ODBCStatement@@KAXPEAUuv_work_s@@H@Z 000000018002e8c4     odbc_statement.obj
 0002:0000a8d4       $unwind$?BindSync@ODBCStatement@@SAXAEBV?$FunctionCallbackInfo@VValue@v8@@@Nan@@@Z 000000018002e8d4     odbc_statement.obj
 0002:0000a8e4       $chain$3$?BindSync@ODBCStatement@@SAXAEBV?$FunctionCallbackInfo@VValue@v8@@@Nan@@@Z 000000018002e8e4     odbc_statement.obj
 0002:0000a900       $chain$4$?BindSync@ODBCStatement@@SAXAEBV?$FunctionCallbackInfo@VValue@v8@@@Nan@@@Z 000000018002e900     odbc_statement.obj
 0002:0000a914       $chain$7$?BindSync@ODBCStatement@@SAXAEBV?$FunctionCallbackInfo@VValue@v8@@@Nan@@@Z 000000018002e914     odbc_statement.obj
 0002:0000a914       $chain$5$?BindSync@ODBCStatement@@SAXAEBV?$FunctionCallbackInfo@VValue@v8@@@Nan@@@Z 000000018002e914     odbc_statement.obj
 0002:0000a924       $chain$6$?BindSync@ODBCStatement@@SAXAEBV?$FunctionCallbackInfo@VValue@v8@@@Nan@@@Z 000000018002e924     odbc_statement.obj
 0002:0000a938       $chain$8$?BindSync@ODBCStatement@@SAXAEBV?$FunctionCallbackInfo@VValue@v8@@@Nan@@@Z 000000018002e938     odbc_statement.obj
 0002:0000a94c       $unwind$?Bind@ODBCStatement@@SAXAEBV?$FunctionCallbackInfo@VValue@v8@@@Nan@@@Z 000000018002e94c     odbc_statement.obj
 0002:0000a95c       $chain$5$?Bind@ODBCStatement@@SAXAEBV?$FunctionCallbackInfo@VValue@v8@@@Nan@@@Z 000000018002e95c     odbc_statement.obj
 0002:0000a980       $chain$6$?Bind@ODBCStatement@@SAXAEBV?$FunctionCallbackInfo@VValue@v8@@@Nan@@@Z 000000018002e980     odbc_statement.obj
 0002:0000a994       $chain$7$?Bind@ODBCStatement@@SAXAEBV?$FunctionCallbackInfo@VValue@v8@@@Nan@@@Z 000000018002e994     odbc_statement.obj
 0002:0000a9a4       $chain$10$?Bind@ODBCStatement@@SAXAEBV?$FunctionCallbackInfo@VValue@v8@@@Nan@@@Z 000000018002e9a4     odbc_statement.obj
 0002:0000a9a4       $chain$8$?Bind@ODBCStatement@@SAXAEBV?$FunctionCallbackInfo@VValue@v8@@@Nan@@@Z 000000018002e9a4     odbc_statement.obj
 0002:0000a9c0       $chain$9$?Bind@ODBCStatement@@SAXAEBV?$FunctionCallbackInfo@VValue@v8@@@Nan@@@Z 000000018002e9c0     odbc_statement.obj
 0002:0000a9e8       $chain$13$?Bind@ODBCStatement@@SAXAEBV?$FunctionCallbackInfo@VValue@v8@@@Nan@@@Z 000000018002e9e8     odbc_statement.obj
 0002:0000a9e8       $chain$11$?Bind@ODBCStatement@@SAXAEBV?$FunctionCallbackInfo@VValue@v8@@@Nan@@@Z 000000018002e9e8     odbc_statement.obj
 0002:0000a9fc       $chain$12$?Bind@ODBCStatement@@SAXAEBV?$FunctionCallbackInfo@VValue@v8@@@Nan@@@Z 000000018002e9fc     odbc_statement.obj
 0002:0000aa0c       $unwind$?UV_AfterBind@ODBCStatement@@KAXPEAUuv_work_s@@H@Z 000000018002ea0c     odbc_statement.obj
 0002:0000aa1c       $chain$1$?UV_AfterBind@ODBCStatement@@KAXPEAUuv_work_s@@H@Z 000000018002ea1c     odbc_statement.obj
 0002:0000aa34       $chain$2$?UV_AfterBind@ODBCStatement@@KAXPEAUuv_work_s@@H@Z 000000018002ea34     odbc_statement.obj
 0002:0000aa48       $chain$3$?UV_AfterBind@ODBCStatement@@KAXPEAUuv_work_s@@H@Z 000000018002ea48     odbc_statement.obj
 0002:0000aa58       $chain$4$?UV_AfterBind@ODBCStatement@@KAXPEAUuv_work_s@@H@Z 000000018002ea58     odbc_statement.obj
 0002:0000aa68       $unwind$?CloseSync@ODBCStatement@@SAXAEBV?$FunctionCallbackInfo@VValue@v8@@@Nan@@@Z 000000018002ea68     odbc_statement.obj
 0002:0000aa74       $chain$0$?CloseSync@ODBCStatement@@SAXAEBV?$FunctionCallbackInfo@VValue@v8@@@Nan@@@Z 000000018002ea74     odbc_statement.obj
 0002:0000aa88       $chain$1$?CloseSync@ODBCStatement@@SAXAEBV?$FunctionCallbackInfo@VValue@v8@@@Nan@@@Z 000000018002ea88     odbc_statement.obj
 0002:0000aa98       $unwind$?Init@ODBCResult@@SAXV?$Local@VObject@v8@@@v8@@@Z 000000018002ea98     odbc_result.obj
 0002:0000aaa8       $unwind$?New@ODBCResult@@SAXAEBV?$FunctionCallbackInfo@VValue@v8@@@Nan@@@Z 000000018002eaa8     odbc_result.obj
 0002:0000aab8       $chain$1$?New@ODBCResult@@SAXAEBV?$FunctionCallbackInfo@VValue@v8@@@Nan@@@Z 000000018002eab8     odbc_result.obj
 0002:0000aad0       $chain$2$?New@ODBCResult@@SAXAEBV?$FunctionCallbackInfo@VValue@v8@@@Nan@@@Z 000000018002ead0     odbc_result.obj
 0002:0000aae0       $unwind$?FetchModeGetter@ODBCResult@@SAXV?$Local@VString@v8@@@v8@@AEBV?$PropertyCallbackInfo@VValue@v8@@@Nan@@@Z 000000018002eae0     odbc_result.obj
 0002:0000aaec       $unwind$?Fetch@ODBCResult@@SAXAEBV?$FunctionCallbackInfo@VValue@v8@@@Nan@@@Z 000000018002eaec     odbc_result.obj
 0002:0000ab00       $unwind$?UV_AfterFetch@ODBCResult@@KAXPEAUuv_work_s@@H@Z 000000018002eb00     odbc_result.obj
 0002:0000ab18       $chain$1$?UV_AfterFetch@ODBCResult@@KAXPEAUuv_work_s@@H@Z 000000018002eb18     odbc_result.obj
 0002:0000ab2c       $chain$2$?UV_AfterFetch@ODBCResult@@KAXPEAUuv_work_s@@H@Z 000000018002eb2c     odbc_result.obj
 0002:0000ab2c       $chain$4$?UV_AfterFetch@ODBCResult@@KAXPEAUuv_work_s@@H@Z 000000018002eb2c     odbc_result.obj
 0002:0000ab3c       $chain$3$?UV_AfterFetch@ODBCResult@@KAXPEAUuv_work_s@@H@Z 000000018002eb3c     odbc_result.obj
 0002:0000ab50       $unwind$?FetchSync@ODBCResult@@SAXAEBV?$FunctionCallbackInfo@VValue@v8@@@Nan@@@Z 000000018002eb50     odbc_result.obj
 0002:0000ab68       $unwind$?FetchAll@ODBCResult@@SAXAEBV?$FunctionCallbackInfo@VValue@v8@@@Nan@@@Z 000000018002eb68     odbc_result.obj
 0002:0000ab7c       $unwind$?UV_AfterFetchAll@ODBCResult@@KAXPEAUuv_work_s@@H@Z 000000018002eb7c     odbc_result.obj
 0002:0000ab98       $unwind$?FetchAllSync@ODBCResult@@SAXAEBV?$FunctionCallbackInfo@VValue@v8@@@Nan@@@Z 000000018002eb98     odbc_result.obj
 0002:0000aba4       $chain$5$?FetchAllSync@ODBCResult@@SAXAEBV?$FunctionCallbackInfo@VValue@v8@@@Nan@@@Z 000000018002eba4     odbc_result.obj
 0002:0000abcc       $chain$6$?FetchAllSync@ODBCResult@@SAXAEBV?$FunctionCallbackInfo@VValue@v8@@@Nan@@@Z 000000018002ebcc     odbc_result.obj
 0002:0000abe0       $chain$7$?FetchAllSync@ODBCResult@@SAXAEBV?$FunctionCallbackInfo@VValue@v8@@@Nan@@@Z 000000018002ebe0     odbc_result.obj
 0002:0000abf0       $unwind$?CloseSync@ODBCResult@@SAXAEBV?$FunctionCallbackInfo@VValue@v8@@@Nan@@@Z 000000018002ebf0     odbc_result.obj
 0002:0000abfc       $chain$0$?CloseSync@ODBCResult@@SAXAEBV?$FunctionCallbackInfo@VValue@v8@@@Nan@@@Z 000000018002ebfc     odbc_result.obj
 0002:0000ac10       $chain$1$?CloseSync@ODBCResult@@SAXAEBV?$FunctionCallbackInfo@VValue@v8@@@Nan@@@Z 000000018002ec10     odbc_result.obj
 0002:0000ac20       $unwind$?MoreResultsSync@ODBCResult@@SAXAEBV?$FunctionCallbackInfo@VValue@v8@@@Nan@@@Z 000000018002ec20     odbc_result.obj
 0002:0000ac30       $unwind$?GetColumnNamesSync@ODBCResult@@SAXAEBV?$FunctionCallbackInfo@VValue@v8@@@Nan@@@Z 000000018002ec30     odbc_result.obj
 0002:0000ac38       $chain$3$?GetColumnNamesSync@ODBCResult@@SAXAEBV?$FunctionCallbackInfo@VValue@v8@@@Nan@@@Z 000000018002ec38     odbc_result.obj
 0002:0000ac58       $chain$7$?GetColumnNamesSync@ODBCResult@@SAXAEBV?$FunctionCallbackInfo@VValue@v8@@@Nan@@@Z 000000018002ec58     odbc_result.obj
 0002:0000ac78       $chain$8$?GetColumnNamesSync@ODBCResult@@SAXAEBV?$FunctionCallbackInfo@VValue@v8@@@Nan@@@Z 000000018002ec78     odbc_result.obj
 0002:0000ac88       $chain$9$?GetColumnNamesSync@ODBCResult@@SAXAEBV?$FunctionCallbackInfo@VValue@v8@@@Nan@@@Z 000000018002ec88     odbc_result.obj
 0002:0000ac98       $unwind$?GetRowCountSync@ODBCResult@@SAXAEBV?$FunctionCallbackInfo@VValue@v8@@@Nan@@@Z 000000018002ec98     odbc_result.obj
 0002:0000aca8       $unwind$strptime           000000018002eca8     strptime.obj
 0002:0000acb8       $unwind$conv_num           000000018002ecb8     strptime.obj
 0002:0000acc4       $unwind$strncasecmp        000000018002ecc4     strptime.obj
 0002:0000acd8       xdata                      000000018002ecd8     node:node.exe
 0002:0000ace0       $xdatasym                  000000018002ece0     LIBCMT:_amdsecgs_.obj
 0002:0000ace4       $unwind$_set_errno_from_matherr 000000018002ece4     libucrt:fpexcept.obj
 0002:0000ace4       $unwind$__report_rangecheckfailure 000000018002ece4     LIBCMT:gs_report.obj
 0002:0000ace4       $unwind$__GSHandlerCheck   000000018002ece4     LIBCMT:_gshandler_.obj
 0002:0000ace4       $unwind$__acrt_thread_attach 000000018002ece4     libucrt:initialization.obj
 0002:0000ace4       $unwind$__acrt_thread_detach 000000018002ece4     libucrt:initialization.obj
 0002:0000ace4       $unwind$?state_case_size@?$output_processor@_WV?$stream_output_adapter@_W@__crt_stdio_output@@V?$standard_base@_WV?$stream_output_adapter@_W@__crt_stdio_output@@@2@@__crt_stdio_output@@AEAA_NXZ 000000018002ece4     libucrt:output.obj
 0002:0000ace4       $unwind$__acrt_uninitialize_critical 000000018002ece4     libucrt:initialization.obj
 0002:0000ace4       $unwind$__vcrt_freefls     000000018002ece4     libvcruntime:per_thread_data.obj
 0002:0000ace4       $unwind$initialize_c       000000018002ece4     libucrt:initialization.obj
 0002:0000ace4       $unwind$__acrt_initialize_command_line 000000018002ece4     libucrt:argv_data.obj
 0002:0000ace4       $unwind$__vcrt_uninitialize_ptd 000000018002ece4     libvcruntime:per_thread_data.obj
 0002:0000ace4       $unwind$__acrt_uninitialize_ptd 000000018002ece4     libucrt:per_thread_data.obj
 0002:0000ace4       $unwind$??$uninitialize_environment_internal@_W@@YAXAEAPEAPEA_W@Z 000000018002ece4     libucrt:environment_initialization.obj
 0002:0000ace4       $unwind$_fileno            000000018002ece4     libucrt:fileno.obj
 0002:0000ace4       $unwind$abort              000000018002ece4     libucrt:abort.obj
 0002:0000ace4       $unwind$__vcrt_thread_detach 000000018002ece4     libvcruntime:initialization.obj
 0002:0000ace4       $unwind$__vcrt_thread_attach 000000018002ece4     libvcruntime:initialization.obj
 0002:0000ace4       $unwind$__vcrt_uninitialize_critical 000000018002ece4     libvcruntime:initialization.obj
 0002:0000ace4       $unwind$__vcrt_uninitialize 000000018002ece4     libvcruntime:initialization.obj
 0002:0000ace4       $unwind$__scrt_initialize_default_local_stdio_options 000000018002ece4     LIBCMT:default_local_stdio_options.obj
 0002:0000ace4       $unwind$__vcrt_initialize  000000018002ece4     libvcruntime:initialization.obj
 0002:0000ace4       $unwind$??$uninitialize_environment_internal@D@@YAXAEAPEAPEAD@Z 000000018002ece4     libucrt:environment_initialization.obj
 0002:0000ace4       $unwind$?state_case_size@?$output_processor@_WV?$string_output_adapter@_W@__crt_stdio_output@@V?$standard_base@_WV?$string_output_adapter@_W@__crt_stdio_output@@@2@@__crt_stdio_output@@AEAA_NXZ 000000018002ece4     libucrt:output.obj
 0002:0000ace4       $unwind$__dcrt_uninitialize_environments_nolock 000000018002ece4     libucrt:environment_initialization.obj
 0002:0000ace4       $unwind$__vcrt_initialize_ptd 000000018002ece4     libvcruntime:per_thread_data.obj
 0002:0000ace4       $unwind$tolower            000000018002ece4     libucrt:tolower_toupper.obj
 0002:0000ace4       $unwind$_set_error_mode    000000018002ece4     libucrt:set_error_mode.obj
 0002:0000ace4       $unwind$_get_daylight      000000018002ece4     libucrt:timeset.obj
 0002:0000ace4       $unwind$_statfp            000000018002ece4     libucrt:fpctrl.obj
 0002:0000ace4       $unwind$_get_dstbias       000000018002ece4     libucrt:timeset.obj
 0002:0000ace4       $unwind$__acrt_initialize_ptd 000000018002ece4     libucrt:per_thread_data.obj
 0002:0000ace4       $unwind$_get_timezone      000000018002ece4     libucrt:timeset.obj
 0002:0000ace4       $unwind$_invoke_watson     000000018002ece4     libucrt:invalid_parameter.obj
 0002:0000ace4       $unwind$__acrt_initialize_heap 000000018002ece4     libucrt:heap_handle.obj
 0002:0000ace4       $unwind$_msize             000000018002ece4     libucrt:msize.obj
 0002:0000ace4       $unwind$?initialize_multibyte@@YAHXZ 000000018002ece4     libucrt:multibyte_initializer.obj
 0002:0000ace4       $unwind$_errno             000000018002ece4     libucrt:errno.obj
 0002:0000ace4       $unwind$_getfpstatusword   000000018002ece4     libucrt:_fenvutils.obj
 0002:0000ace4       $unwind$__scrt_dllmain_crt_thread_detach 000000018002ece4     LIBCMT:utility.obj
 0002:0000ace4       $unwind$__scrt_dllmain_crt_thread_attach 000000018002ece4     LIBCMT:utility.obj
 0002:0000ace4       $unwind$__scrt_dllmain_uninitialize_critical 000000018002ece4     LIBCMT:utility.obj
 0002:0000ace4       $unwind$__scrt_dllmain_uninitialize_c 000000018002ece4     LIBCMT:utility.obj
 0002:0000ace4       $unwind$__scrt_dllmain_after_initialize_c 000000018002ece4     LIBCMT:utility.obj
 0002:0000ace4       $unwind$__scrt_dllmain_before_initialize_c 000000018002ece4     LIBCMT:utility.obj
 0002:0000ace4       $unwind$__doserrno         000000018002ece4     libucrt:errno.obj
 0002:0000ace4       $unwind$_getfpcontrolword  000000018002ece4     libucrt:_fenvutils.obj
 0002:0000ace4       $unwind$_strnicmp          000000018002ece4     libucrt:strnicmp.obj
 0002:0000ace4       $unwind$__dcrt_terminate_console_output 000000018002ece4     libucrt:initcon.obj
 0002:0000ace4       $unwind$__acrt_initialize_multibyte 000000018002ece4     libucrt:mbctype.obj
 0002:0000ace4       $unwind$_stricmp           000000018002ece4     libucrt:stricmp.obj
 0002:0000ace4       $unwind$_get_osfhandle     000000018002ece4     libucrt:osfinfo.obj
 0002:0000ace4       $unwind$_isatty            000000018002ece4     libucrt:isatty.obj
 0002:0000ace4       $unwind$__pctype_func      000000018002ece4     libucrt:ctype.obj
 0002:0000ace4       $unwind$___lc_codepage_func 000000018002ece4     libucrt:initctype.obj
 0002:0000ace4       $unwind$__acrt_DownlevelLocaleNameToLCID 000000018002ece4     libucrt:lcidtoname_downlevel.obj
 0002:0000ace4       $unwind$__scrt_acquire_startup_lock 000000018002ece4     LIBCMT:utility.obj
 0002:0000ace4       $unwind$__acrt_release_locale_ref 000000018002ece4     libucrt:locale_refcounting.obj
 0002:0000ace4       $unwind$atexit             000000018002ece4     LIBCMT:utility.obj
 0002:0000ace4       $unwind$uninitialize_environment 000000018002ece4     libucrt:initialization.obj
 0002:0000ace4       $unwind$?dllmain_crt_dispatch@@YAHQEAUHINSTANCE__@@KQEAX@Z 000000018002ece4     LIBCMT:dll_dllmain.obj
 0002:0000acec       $unwind$__scrt_is_nonwritable_in_current_image 000000018002ecec     LIBCMT:utility.obj
 0002:0000ad0c       $unwind$__scrt_is_nonwritable_in_current_image$filt$0 000000018002ed0c     LIBCMT:utility.obj
 0002:0000ad14       $unwind$__scrt_initialize_onexit_tables 000000018002ed14     LIBCMT:utility.obj
 0002:0000ad20       $unwind$?dllmain_crt_process_attach@@YAHQEAUHINSTANCE__@@QEAX@Z 000000018002ed20     LIBCMT:dll_dllmain.obj
 0002:0000ad4c       $unwind$?dllmain_crt_process_detach@@YAH_N@Z 000000018002ed4c     LIBCMT:dll_dllmain.obj
 0002:0000ad74       $unwind$?dllmain_dispatch@@YAHQEAUHINSTANCE__@@KQEAX@Z 000000018002ed74     LIBCMT:dll_dllmain.obj
 0002:0000ad9c       $unwind$__report_securityfailure 000000018002ed9c     LIBCMT:gs_report.obj
 0002:0000ada4       $unwind$_putwch_nolock     000000018002eda4     libucrt:putwch.obj
 0002:0000ada4       $unwind$__report_gsfailure 000000018002eda4     LIBCMT:gs_report.obj
 0002:0000adac       $unwind$capture_current_context 000000018002edac     LIBCMT:gs_report.obj
 0002:0000adb8       $unwind$capture_previous_context 000000018002edb8     LIBCMT:gs_report.obj
 0002:0000adc4       $unwind$_raise_exc         000000018002edc4     libucrt:fpexcept.obj
 0002:0000adc4       $unwind$?__scrt_throw_std_bad_array_new_length@@YAXXZ 000000018002edc4     LIBCMT:throw_bad_alloc.obj
 0002:0000adc4       $unwind$__dcrt_lowio_initialize_console_output 000000018002edc4     libucrt:initcon.obj
 0002:0000adc4       $unwind$?__scrt_throw_std_bad_alloc@@YAXXZ 000000018002edc4     LIBCMT:throw_bad_alloc.obj
 0002:0000adcc       $unwind$__isa_available_init 000000018002edcc     LIBCMT:_cpu_disp_.obj
 0002:0000addc       $unwind$__scrt_fastfail    000000018002eddc     LIBCMT:utility_desktop.obj
 0002:0000adec       $unwind$__security_init_cookie 000000018002edec     LIBCMT:gs_support.obj
 0002:0000adf8       $xdatasym                  000000018002edf8     LIBCMT:_guard_dispatch_.obj
 0002:0000adfc       $unwind$__C_specific_handler 000000018002edfc     libvcruntime:_chandler_.obj
 0002:0000ae18       $unwind$_CxxThrowException 000000018002ee18     libvcruntime:throw.obj
 0002:0000ae30       $xdatasym                  000000018002ee30     libvcruntime:memset.obj
 0002:0000ae34       $unwind$__vcrt_uninitialize_winapi_thunks 000000018002ee34     libvcruntime:winapi_downlevel.obj
 0002:0000ae34       $unwind$__acrt_stdio_end_temporary_buffering_nolock 000000018002ee34     libucrt:_sftbuf.obj
 0002:0000ae40       $xdatasym                  000000018002ee40     libvcruntime:_jmpuwind_.obj
 0002:0000ae54       $unwind$??$common_mktime@_J@@YA_JQEAUtm@@_N@Z 000000018002ee54     libucrt:mktime.obj
 0002:0000ae70       $unwind$fwprintf           000000018002ee70     libucrt:assert.obj
 0002:0000ae7c       $unwind$swprintf           000000018002ee7c     libucrt:assert.obj
 0002:0000ae8c       $unwind$??$common_assert_to_stderr@_W@@YAXQEB_W0I@Z 000000018002ee8c     libucrt:assert.obj
 0002:0000aea8       $unwind$??$common_assert_to_message_box@_W@@YAXQEB_W0IQEAX@Z 000000018002eea8     libucrt:assert.obj
 0002:0000aec4       $unwind$??$common_assert_to_message_box_build_string@_W@@YAXQEA_W_KQEB_W2IQEAX@Z 000000018002eec4     libucrt:assert.obj
 0002:0000aee4       $unwind$_tolower_l         000000018002eee4     libucrt:tolower_toupper.obj
 0002:0000aef4       $unwind$_query_new_handler 000000018002eef4     libucrt:new_handler.obj
 0002:0000af14       $unwind$?common_exit@@YAXHW4_crt_exit_cleanup_mode@@W4_crt_exit_return_mode@@@Z 000000018002ef14     libucrt:exit.obj
 0002:0000af54       $unwind$_configure_narrow_argv 000000018002ef54     libucrt:argv_parsing.obj
 0002:0000af68       $unwind$??$create_environment@D@@YAQEAPEADQEAD@Z 000000018002ef68     libucrt:environment_initialization.obj
 0002:0000af80       $unwind$??$initialize_environment_by_cloning_nolock@D@@YAHXZ 000000018002ef80     libucrt:environment_initialization.obj
 0002:0000af90       $unwind$_register_onexit_function 000000018002ef90     libucrt:onexit.obj
 0002:0000af98       $unwind$_execute_onexit_table 000000018002ef98     libucrt:onexit.obj
 0002:0000afa0       $unwind$??R<lambda_4e60a939b0d047cfe11ddc22648dfba9>@@QEBAHXZ 000000018002efa0     libucrt:onexit.obj
 0002:0000afa0       $unwind$??$parse_command_line@D@@YAXPEADPEAPEAD0PEA_K2@Z 000000018002efa0     libucrt:argv_parsing.obj
 0002:0000afbc       $unwind$??$?RV<lambda_b8c45f8f788dd370798f47cfe8ac3a86>@@AEAV<lambda_4e60a939b0d047cfe11ddc22648dfba9>@@V<lambda_332c3edc96d0294ec56c57d38c1cdfd5>@@@?$__crt_seh_guarded_call@H@@QEAAH$$QEAV<lambda_b8c45f8f788dd370798f47cfe8ac3a86>@@AEAV<lambda_4e60a939b0d047cfe11ddc22648dfba9>@@$$QEAV<lambda_332c3edc96d0294ec56c57d38c1cdfd5>@@@Z 000000018002efbc     libucrt:onexit.obj
 0002:0000afe0       $unwind$??$?RV<lambda_e24bbb7b643b32fcea6fa61b31d4c984>@@AEAV<lambda_275893d493268fdec8709772e3fcec0e>@@V<lambda_9d71df4d7cf3f480f8d633942495c3b0>@@@?$__crt_seh_guarded_call@H@@QEAAH$$QEAV<lambda_e24bbb7b643b32fcea6fa61b31d4c984>@@AEAV<lambda_275893d493268fdec8709772e3fcec0e>@@$$QEAV<lambda_9d71df4d7cf3f480f8d633942495c3b0>@@@Z 000000018002efe0     libucrt:onexit.obj
 0002:0000b010       $unwind$terminate          000000018002f010     libucrt:terminate.obj
 0002:0000b030       $unwind$__stdio_common_vfwprintf 000000018002f030     libucrt:output.obj
 0002:0000b038       $unwind$__stdio_common_vswprintf 000000018002f038     libucrt:output.obj
 0002:0000b05c       $unwind$?write_string@?$stream_output_adapter@_W@__crt_stdio_output@@QEBAXQEB_WHQEAH1@Z 000000018002f05c     libucrt:output.obj
 0002:0000b074       $unwind$?process@?$output_processor@_WV?$stream_output_adapter@_W@__crt_stdio_output@@V?$standard_base@_WV?$stream_output_adapter@_W@__crt_stdio_output@@@2@@__crt_stdio_output@@QEAAHXZ 000000018002f074     libucrt:output.obj
 0002:0000b08c       $unwind$?parse_int_from_format_string@?$output_processor@_WV?$string_output_adapter@_W@__crt_stdio_output@@V?$standard_base@_WV?$string_output_adapter@_W@__crt_stdio_output@@@2@@__crt_stdio_output@@AEAA_NQEAH@Z 000000018002f08c     libucrt:output.obj
 0002:0000b08c       $unwind$?parse_int_from_format_string@?$output_processor@_WV?$stream_output_adapter@_W@__crt_stdio_output@@V?$standard_base@_WV?$stream_output_adapter@_W@__crt_stdio_output@@@2@@__crt_stdio_output@@AEAA_NQEAH@Z 000000018002f08c     libucrt:output.obj
 0002:0000b0a0       $unwind$?write_stored_string_tchar@?$output_processor@_WV?$stream_output_adapter@_W@__crt_stdio_output@@V?$standard_base@_WV?$stream_output_adapter@_W@__crt_stdio_output@@@2@@__crt_stdio_output@@AEAA_N_W@Z 000000018002f0a0     libucrt:output.obj
 0002:0000b0b4       $unwind$??R<lambda_dd75445284c072d0bd3768540cc698fa>@@QEBAHXZ 000000018002f0b4     libucrt:output.obj
 0002:0000b0d0       $unwind$?try_get_function@@YAPEAXW4function_id@?A0xc6fdf113@@QEBDQEBW4module_id@2@2@Z 000000018002f0d0     libvcruntime:winapi_downlevel.obj
 0002:0000b0d0       $unwind$?try_get_function@@YAPEAXW4function_id@?A0x63058377@@QEBDQEBW4module_id@2@2@Z 000000018002f0d0     libucrt:winapi_thunks.obj
 0002:0000b0d0       $unwind$?write_string@?$string_output_adapter@_W@__crt_stdio_output@@QEBAXQEB_WHQEAH1@Z 000000018002f0d0     libucrt:output.obj
 0002:0000b0ec       $unwind$__acrt_MessageBoxW 000000018002f0ec     libucrt:winapi_thunks.obj
 0002:0000b0ec       $unwind$__acrt_initialize_stdio 000000018002f0ec     libucrt:_file.obj
 0002:0000b0ec       $unwind$?process@?$output_processor@_WV?$string_output_adapter@_W@__crt_stdio_output@@V?$standard_base@_WV?$string_output_adapter@_W@__crt_stdio_output@@@2@@__crt_stdio_output@@QEAAHXZ 000000018002f0ec     libucrt:output.obj
 0002:0000b0ec       $unwind$_initterm          000000018002f0ec     libucrt:initterm.obj
 0002:0000b104       $unwind$?state_case_type@?$output_processor@_WV?$string_output_adapter@_W@__crt_stdio_output@@V?$standard_base@_WV?$string_output_adapter@_W@__crt_stdio_output@@@2@@__crt_stdio_output@@AEAA_NXZ 000000018002f104     libucrt:output.obj
 0002:0000b104       $unwind$?state_case_type@?$output_processor@_WV?$stream_output_adapter@_W@__crt_stdio_output@@V?$standard_base@_WV?$stream_output_adapter@_W@__crt_stdio_output@@@2@@__crt_stdio_output@@AEAA_NXZ 000000018002f104     libucrt:output.obj
 0002:0000b128       $unwind$?type_case_c_tchar@?$output_processor@_WV?$string_output_adapter@_W@__crt_stdio_output@@V?$standard_base@_WV?$string_output_adapter@_W@__crt_stdio_output@@@2@@__crt_stdio_output@@AEAA_N_W@Z 000000018002f128     libucrt:output.obj
 0002:0000b128       $unwind$??R<lambda_b721fa326cdb32351d23dfa67958c160>@@QEBAHXZ 000000018002f128     libucrt:setvbuf.obj
 0002:0000b128       $unwind$?type_case_c_tchar@?$output_processor@_WV?$stream_output_adapter@_W@__crt_stdio_output@@V?$standard_base@_WV?$stream_output_adapter@_W@__crt_stdio_output@@@2@@__crt_stdio_output@@AEAA_N_W@Z 000000018002f128     libucrt:output.obj
 0002:0000b138       $unwind$?type_case_a@?$output_processor@_WV?$string_output_adapter@_W@__crt_stdio_output@@V?$standard_base@_WV?$string_output_adapter@_W@__crt_stdio_output@@@2@@__crt_stdio_output@@AEAA_NXZ 000000018002f138     libucrt:output.obj
 0002:0000b138       $unwind$?type_case_a@?$output_processor@_WV?$stream_output_adapter@_W@__crt_stdio_output@@V?$standard_base@_WV?$stream_output_adapter@_W@__crt_stdio_output@@@2@@__crt_stdio_output@@AEAA_NXZ 000000018002f138     libucrt:output.obj
 0002:0000b148       $unwind$?cvtdate@@YAXW4transition_type@?A0x1b14ceb2@@W4date_type@2@HHHHHHHHH@Z 000000018002f148     libucrt:tzset.obj
 0002:0000b148       $unwind$?write_stored_string_tchar@?$output_processor@_WV?$string_output_adapter@_W@__crt_stdio_output@@V?$standard_base@_WV?$string_output_adapter@_W@__crt_stdio_output@@@2@@__crt_stdio_output@@AEAA_N_W@Z 000000018002f148     libucrt:output.obj
 0002:0000b15c       $unwind$??$write_multiple_characters@V?$stream_output_adapter@_W@__crt_stdio_output@@D@__crt_stdio_output@@YAXAEBV?$stream_output_adapter@_W@0@DHQEAH@Z 000000018002f15c     libucrt:output.obj
 0002:0000b174       $unwind$??$write_multiple_characters@V?$string_output_adapter@_W@__crt_stdio_output@@D@__crt_stdio_output@@YAXAEBV?$string_output_adapter@_W@0@DHQEAH@Z 000000018002f174     libucrt:output.obj
 0002:0000b180       $unwind$??$type_case_integer_parse_into_buffer@_K@?$output_processor@_WV?$string_output_adapter@_W@__crt_stdio_output@@V?$standard_base@_WV?$string_output_adapter@_W@__crt_stdio_output@@@2@@__crt_stdio_output@@AEAAX_KI_N@Z 000000018002f180     libucrt:output.obj
 0002:0000b180       $unwind$??$type_case_integer_parse_into_buffer@_K@?$output_processor@_WV?$stream_output_adapter@_W@__crt_stdio_output@@V?$standard_base@_WV?$stream_output_adapter@_W@__crt_stdio_output@@@2@@__crt_stdio_output@@AEAAX_KI_N@Z 000000018002f180     libucrt:output.obj
 0002:0000b180       $unwind$??$type_case_integer_parse_into_buffer@I@?$output_processor@_WV?$string_output_adapter@_W@__crt_stdio_output@@V?$standard_base@_WV?$string_output_adapter@_W@__crt_stdio_output@@@2@@__crt_stdio_output@@AEAAXII_N@Z 000000018002f180     libucrt:output.obj
 0002:0000b180       $unwind$??$type_case_integer_parse_into_buffer@I@?$output_processor@_WV?$stream_output_adapter@_W@__crt_stdio_output@@V?$standard_base@_WV?$stream_output_adapter@_W@__crt_stdio_output@@@2@@__crt_stdio_output@@AEAAXII_N@Z 000000018002f180     libucrt:output.obj
 0002:0000b188       $unwind$??$?RV<lambda_7b91131dde12e1c3dfc74ff76b3f2eac>@@AEAV<lambda_dd75445284c072d0bd3768540cc698fa>@@V<lambda_16bc4ecb55b4718497c16bceaea2ceaf>@@@?$__crt_seh_guarded_call@H@@QEAAH$$QEAV<lambda_7b91131dde12e1c3dfc74ff76b3f2eac>@@AEAV<lambda_dd75445284c072d0bd3768540cc698fa>@@$$QEAV<lambda_16bc4ecb55b4718497c16bceaea2ceaf>@@@Z 000000018002f188     libucrt:output.obj
 0002:0000b1ac       $unwind$??$parse_integer@KV?$c_string_character_source@D@__crt_strtox@@@__crt_strtox@@YAKQEAU__crt_locale_pointers@@V?$c_string_character_source@D@0@H_N@Z 000000018002f1ac     libucrt:atox.obj
 0002:0000b1c8       $unwind$??$parse_integer@KV?$c_string_character_source@_W@__crt_strtox@@@__crt_strtox@@YAKQEAU__crt_locale_pointers@@V?$c_string_character_source@_W@0@H_N@Z 000000018002f1c8     libucrt:atox.obj
 0002:0000b1e4       $unwind$__acrt_call_reportfault 000000018002f1e4     libucrt:invalid_parameter.obj
 0002:0000b204       $unwind$_invalid_parameter 000000018002f204     libucrt:invalid_parameter.obj
 0002:0000b21c       $unwind$??$common_localtime_s@_J@@YAHQEAUtm@@QEB_J@Z 000000018002f21c     libucrt:localtime.obj
 0002:0000b228       $unwind$_isindst           000000018002f228     libucrt:tzset.obj
 0002:0000b248       $unwind$__tzset            000000018002f248     libucrt:tzset.obj
 0002:0000b268       $unwind$?tzset_from_system_nolock@@YAXXZ 000000018002f268     libucrt:tzset.obj
 0002:0000b278       $unwind$?tzset_from_environment_nolock@@YAXPEAD@Z 000000018002f278     libucrt:tzset.obj
 0002:0000b28c       $unwind$?tzset_nolock@@YAXXZ 000000018002f28c     libucrt:tzset.obj
 0002:0000b2a8       $unwind$?_isindst_nolock@@YAHQEAUtm@@@Z 000000018002f2a8     libucrt:tzset.obj
 0002:0000b2c4       $unwind$wcstol             000000018002f2c4     libucrt:strtox.obj
 0002:0000b2c4       $unwind$??$common_xtox_s@K_W@@YAHKQEA_W_KI_N@Z 000000018002f2c4     libucrt:xtoa.obj
 0002:0000b2cc       $unwind$fflush             000000018002f2cc     libucrt:fflush.obj
 0002:0000b2f0       $unwind$common_flush_all   000000018002f2f0     libucrt:fflush.obj
 0002:0000b32c       $unwind$setvbuf            000000018002f32c     libucrt:setvbuf.obj
 0002:0000b334       $unwind$??$?RV<lambda_7a5ef57ff966f610505f1d28a3d40618>@@AEAV<lambda_b721fa326cdb32351d23dfa67958c160>@@V<lambda_5e0fb27672408a07956fe59e48ccb2aa>@@@?$__crt_seh_guarded_call@H@@QEAAH$$QEAV<lambda_7a5ef57ff966f610505f1d28a3d40618>@@AEAV<lambda_b721fa326cdb32351d23dfa67958c160>@@$$QEAV<lambda_5e0fb27672408a07956fe59e48ccb2aa>@@@Z 000000018002f334     libucrt:setvbuf.obj
 0002:0000b358       $unwind$__acrt_get_sigabrt_handler 000000018002f358     libucrt:signal.obj
 0002:0000b360       $unwind$raise              000000018002f360     libucrt:signal.obj
 0002:0000b38c       $unwind$??$?RV<lambda_c36588078e9f5dfd39652860aa6b3aaf>@@AEAV<lambda_ec61778202f4f5fc7e7711acc23c3bca>@@V<lambda_dc9d2797ccde5d239b4a0efae8ebd7db>@@@?$__crt_seh_guarded_call@P6AXH@Z@@QEAAP6AXH@Z$$QEAV<lambda_c36588078e9f5dfd39652860aa6b3aaf>@@AEAV<lambda_ec61778202f4f5fc7e7711acc23c3bca>@@$$QEAV<lambda_dc9d2797ccde5d239b4a0efae8ebd7db>@@@Z 000000018002f38c     libucrt:signal.obj
 0002:0000b3b0       $unwind$_isctype_l         000000018002f3b0     libucrt:isctype.obj
 0002:0000b3cc       $unwind$__acrt_LCMapStringA 000000018002f3cc     libucrt:lcmapstringa.obj
 0002:0000b3dc       $unwind$?__acrt_LCMapStringA_stat@@YAHPEAU__crt_locale_pointers@@PEB_WKPEBDHPEADHHH@Z 000000018002f3dc     libucrt:lcmapstringa.obj
 0002:0000b404       $unwind$?construct_ptd_array@@YAXQEAU__acrt_ptd@@@Z 000000018002f404     libucrt:per_thread_data.obj
 0002:0000b40c       $unwind$?destroy_ptd_array@@YAXQEAU__acrt_ptd@@@Z 000000018002f40c     libucrt:per_thread_data.obj
 0002:0000b414       $unwind$??$?RV<lambda_72d1df2b273a38828b1ce30cbf4cdab5>@@AEAV<lambda_876a65b173b8412d3a47c70a915b0cf4>@@V<lambda_41932305e351933ebe8f8be3ed8bb5dc>@@@?$__crt_seh_guarded_call@X@@QEAAX$$QEAV<lambda_72d1df2b273a38828b1ce30cbf4cdab5>@@AEAV<lambda_876a65b173b8412d3a47c70a915b0cf4>@@$$QEAV<lambda_41932305e351933ebe8f8be3ed8bb5dc>@@@Z 000000018002f414     libucrt:per_thread_data.obj
 0002:0000b438       $unwind$??$?RV<lambda_5e887d1dcbef67a5eb4283622ba103bf>@@AEAV<lambda_4466841279450cc726390878d4a41900>@@V<lambda_341c25c0346d94847f1f3c463c57e077>@@@?$__crt_seh_guarded_call@X@@QEAAX$$QEAV<lambda_5e887d1dcbef67a5eb4283622ba103bf>@@AEAV<lambda_4466841279450cc726390878d4a41900>@@$$QEAV<lambda_341c25c0346d94847f1f3c463c57e077>@@@Z 000000018002f438     libucrt:per_thread_data.obj
 0002:0000b45c       $unwind$??$?RV<lambda_46352004c1216016012b18bd6f87e700>@@AEAV<lambda_3bd07e1a1191394380780325891bf33f>@@V<lambda_334532d3f185bcaa59b5be82d7d22bff>@@@?$__crt_seh_guarded_call@X@@QEAAX$$QEAV<lambda_46352004c1216016012b18bd6f87e700>@@AEAV<lambda_3bd07e1a1191394380780325891bf33f>@@$$QEAV<lambda_334532d3f185bcaa59b5be82d7d22bff>@@@Z 000000018002f45c     libucrt:per_thread_data.obj
 0002:0000b480       $unwind$??$?RV<lambda_fb3a7dec4e47f37f22dae91bb15c9095>@@AEAV<lambda_698284760c8add0bfb0756c19673e34b>@@V<lambda_dfb8eca1e75fef3034a8fb18dd509707>@@@?$__crt_seh_guarded_call@X@@QEAAX$$QEAV<lambda_fb3a7dec4e47f37f22dae91bb15c9095>@@AEAV<lambda_698284760c8add0bfb0756c19673e34b>@@$$QEAV<lambda_dfb8eca1e75fef3034a8fb18dd509707>@@@Z 000000018002f480     libucrt:per_thread_data.obj
 0002:0000b4a4       $unwind$__acrt_uninitialize_locale 000000018002f4a4     libucrt:wsetlocale.obj
 0002:0000b4c4       $unwind$__acrt_initialize_winapi_thunks 000000018002f4c4     libucrt:winapi_thunks.obj
 0002:0000b4cc       $unwind$__acrt_is_interactive 000000018002f4cc     libucrt:winapi_thunks.obj
 0002:0000b4e0       $unwind$??$common_gmtime_s@_J@@YAHQEAUtm@@QEB_J@Z 000000018002f4e0     libucrt:gmtime.obj
 0002:0000b4e0       $unwind$iswctype           000000018002f4e0     libucrt:iswctype.obj
 0002:0000b4e0       $unwind$__acrt_is_packaged_app 000000018002f4e0     libucrt:winapi_thunks.obj
 0002:0000b4ec       $unwind$??$common_expand_argv_wildcards@D@@YAHQEAPEADQEAPEAPEAD@Z 000000018002f4ec     libucrt:argv_wildcards.obj
 0002:0000b504       $unwind$_seh_filter_exe    000000018002f504     libucrt:exception_filter.obj
 0002:0000b504       $unwind$_recalloc_base     000000018002f504     libucrt:recalloc.obj
 0002:0000b504       $unwind$__acrt_free_locale 000000018002f504     libucrt:locale_refcounting.obj
 0002:0000b504       $unwind$?dllmain_raw@@YAHQEAUHINSTANCE__@@KQEAX@Z 000000018002f504     LIBCMT:dll_dllmain.obj
 0002:0000b504       $unwind$_wassert           000000018002f504     libucrt:assert.obj
 0002:0000b504       $unwind$__vcrt_InitializeCriticalSectionEx 000000018002f504     libvcruntime:winapi_downlevel.obj
 0002:0000b504       $unwind$?setSBCS@@YAXPEAU__crt_multibyte_data@@@Z 000000018002f504     libucrt:mbctype.obj
 0002:0000b504       $unwind$__scrt_dllmain_exception_filter 000000018002f504     LIBCMT:utility.obj
 0002:0000b504       $unwind$__acrt_lowio_create_handle_array 000000018002f504     libucrt:osfinfo.obj
 0002:0000b504       $unwind$?expand_if_necessary@?$argument_list@D@?A0xca0879c4@@AEAAHXZ 000000018002f504     libucrt:argv_wildcards.obj
 0002:0000b504       $unwind$??$ensure_buffer_is_big_enough@D@formatting_buffer@__crt_stdio_output@@QEAA_N_K@Z 000000018002f504     libucrt:output.obj
 0002:0000b504       $unwind$__acrt_execute_initializers 000000018002f504     libucrt:shared_initialization.obj
 0002:0000b504       $unwind$__acrt_InitializeCriticalSectionEx 000000018002f504     libucrt:winapi_thunks.obj
 0002:0000b518       $unwind$??$copy_and_add_argument_to_buffer@D@@YAHQEBD0_KAEAV?$argument_list@D@?A0xca0879c4@@@Z 000000018002f518     libucrt:argv_wildcards.obj
 0002:0000b534       $unwind$??$expand_argument_wildcards@D@@YAHQEAD0AEAV?$argument_list@D@?A0xca0879c4@@@Z 000000018002f534     libucrt:argv_wildcards.obj
 0002:0000b554       $unwind$__acrt_update_thread_multibyte_data 000000018002f554     libucrt:mbctype.obj
 0002:0000b578       $unwind$_setmbcp_nolock    000000018002f578     libucrt:mbctype.obj
 0002:0000b598       $unwind$?setSBUpLow@@YAXPEAU__crt_multibyte_data@@@Z 000000018002f598     libucrt:mbctype.obj
 0002:0000b5b4       $unwind$?setmbcp_internal@@YAHH_N@Z 000000018002f5b4     libucrt:mbctype.obj
 0002:0000b5c4       $unwind$??$?RV<lambda_99476a1ad63dd22509b5d3e65b0ffc95>@@AEAV<lambda_ad1ced32f4ac17aa236e5ef05d6b3b7c>@@V<lambda_f7424dd8d45958661754dc4f2697e9c3>@@@?$__crt_seh_guarded_call@X@@QEAAX$$QEAV<lambda_99476a1ad63dd22509b5d3e65b0ffc95>@@AEAV<lambda_ad1ced32f4ac17aa236e5ef05d6b3b7c>@@$$QEAV<lambda_f7424dd8d45958661754dc4f2697e9c3>@@@Z 000000018002f5c4     libucrt:mbctype.obj
 0002:0000b5e8       $unwind$_stricmp_l         000000018002f5e8     libucrt:stricmp.obj
 0002:0000b5e8       $unwind$?x_ismbbtype_l@@YAHPEAU__crt_locale_pointers@@IHH@Z 000000018002f5e8     libucrt:ismbbyte.obj
 0002:0000b5f8       $unwind$??$common_set_variable_in_environment_nolock@D@@YAHQEADH@Z 000000018002f5f8     libucrt:setenv.obj
 0002:0000b610       $unwind$??$copy_environment@D@@YAPEAPEADQEAPEAD@Z 000000018002f610     libucrt:setenv.obj
 0002:0000b624       $unwind$__acrt_initialize_lowio 000000018002f624     libucrt:ioinit.obj
 0002:0000b644       $unwind$?initialize_inherited_file_handles_nolock@@YAXXZ 000000018002f644     libucrt:ioinit.obj
 0002:0000b660       $unwind$?initialize_stdio_handles_nolock@@YAXXZ 000000018002f660     libucrt:ioinit.obj
 0002:0000b660       $unwind$_free_osfhnd       000000018002f660     libucrt:osfinfo.obj
 0002:0000b660       $unwind$__std_exception_copy 000000018002f660     libvcruntime:std_exception.obj
 0002:0000b674       $unwind$_RTC_Terminate     000000018002f674     LIBCMT:_initsect_.obj
 0002:0000b674       $unwind$__acrt_stdio_flush_and_write_wide_nolock 000000018002f674     libucrt:_flsbuf.obj
 0002:0000b674       $unwind$?type_case_n@?$output_processor@_WV?$string_output_adapter@_W@__crt_stdio_output@@V?$standard_base@_WV?$string_output_adapter@_W@__crt_stdio_output@@@2@@__crt_stdio_output@@AEAA_NXZ 000000018002f674     libucrt:output.obj
 0002:0000b674       $unwind$__acrt_execute_uninitializers 000000018002f674     libucrt:shared_initialization.obj
 0002:0000b674       $unwind$??$common_lseek_nolock@_J@@YA_JH_JH@Z 000000018002f674     libucrt:lseek.obj
 0002:0000b674       $unwind$_DllMainCRTStartup 000000018002f674     LIBCMT:dll_dllmain.obj
 0002:0000b674       $unwind$__acrt_LocaleNameToLCID 000000018002f674     libucrt:winapi_thunks.obj
 0002:0000b674       $unwind$__acrt_stdio_flush_and_write_narrow_nolock 000000018002f674     libucrt:_flsbuf.obj
 0002:0000b674       $unwind$_RTC_Initialize    000000018002f674     LIBCMT:_initsect_.obj
 0002:0000b674       $unwind$?type_case_Z@?$output_processor@_WV?$string_output_adapter@_W@__crt_stdio_output@@V?$standard_base@_WV?$string_output_adapter@_W@__crt_stdio_output@@@2@@__crt_stdio_output@@AEAA_NXZ 000000018002f674     libucrt:output.obj
 0002:0000b674       $unwind$??R<lambda_ad1ced32f4ac17aa236e5ef05d6b3b7c>@@QEBAXXZ 000000018002f674     libucrt:mbctype.obj
 0002:0000b674       $unwind$?free_crt_array_internal@@YAXQEAPEBX_K@Z 000000018002f674     libucrt:inittime.obj
 0002:0000b674       $unwind$?type_case_s@?$output_processor@_WV?$stream_output_adapter@_W@__crt_stdio_output@@V?$standard_base@_WV?$stream_output_adapter@_W@__crt_stdio_output@@@2@@__crt_stdio_output@@AEAA_NXZ 000000018002f674     libucrt:output.obj
 0002:0000b674       $unwind$??$common_getenv_nolock@D@@YAPEADQEBD@Z 000000018002f674     libucrt:getenv.obj
 0002:0000b674       $unwind$__acrt_getptd_noexit 000000018002f674     libucrt:per_thread_data.obj
 0002:0000b674       $unwind$?type_case_n@?$output_processor@_WV?$stream_output_adapter@_W@__crt_stdio_output@@V?$standard_base@_WV?$stream_output_adapter@_W@__crt_stdio_output@@@2@@__crt_stdio_output@@AEAA_NXZ 000000018002f674     libucrt:output.obj
 0002:0000b674       $unwind$memcpy_s           000000018002f674     libucrt:cfout.obj
 0002:0000b674       $unwind$?compute_year@@YAHAEA_JAEA_N@Z 000000018002f674     libucrt:gmtime.obj
 0002:0000b674       $unwind$__acrt_FlsSetValue 000000018002f674     libucrt:winapi_thunks.obj
 0002:0000b674       $unwind$__acrt_stdio_flush_nolock 000000018002f674     libucrt:fflush.obj
 0002:0000b674       $unwind$_initterm_e        000000018002f674     libucrt:initterm.obj
 0002:0000b674       $unwind$?type_case_s@?$output_processor@_WV?$string_output_adapter@_W@__crt_stdio_output@@V?$standard_base@_WV?$string_output_adapter@_W@__crt_stdio_output@@@2@@__crt_stdio_output@@AEAA_NXZ 000000018002f674     libucrt:output.obj
 0002:0000b674       $unwind$__vcrt_getptd_noexit 000000018002f674     libvcruntime:per_thread_data.obj
 0002:0000b674       $unwind$_exception_enabled 000000018002f674     libucrt:libm_error.obj
 0002:0000b674       $unwind$__vcrt_FlsSetValue 000000018002f674     libvcruntime:winapi_downlevel.obj
 0002:0000b674       $unwind$?type_case_Z@?$output_processor@_WV?$stream_output_adapter@_W@__crt_stdio_output@@V?$standard_base@_WV?$stream_output_adapter@_W@__crt_stdio_output@@@2@@__crt_stdio_output@@AEAA_NXZ 000000018002f674     libucrt:output.obj
 0002:0000b684       $unwind$__acrt_show_wide_message_box 000000018002f684     libucrt:crtmbox.obj
 0002:0000b684       $unwind$__acrt_CompareStringEx 000000018002f684     libucrt:winapi_thunks.obj
 0002:0000b684       $unwind$__acrt_LCMapStringEx 000000018002f684     libucrt:winapi_thunks.obj
 0002:0000b684       $unwind$_mbtowc_l          000000018002f684     libucrt:mbtowc.obj
 0002:0000b69c       $unwind$_wctomb_s_l        000000018002f69c     libucrt:wctomb.obj
 0002:0000b6ac       $unwind$wcsnlen            000000018002f6ac     libucrt:strnlen.obj
 0002:0000b6b4       $unwind$__acrt_fp_format   000000018002f6b4     libucrt:cvt.obj
 0002:0000b6d0       $unwind$?fp_format_nan_or_infinity@@YAHW4__acrt_fp_class@@_NPEAD_K1@Z 000000018002f6d0     libucrt:cvt.obj
 0002:0000b6e4       $unwind$?fp_format_e_internal@@YAHQEAD_KH_NIQEAU_strflt@@2QEAU__crt_locale_pointers@@@Z 000000018002f6e4     libucrt:cvt.obj
 0002:0000b6fc       $unwind$?fp_format_e@@YAHQEBNQEAD_K12H_NIQEAU__crt_locale_pointers@@@Z 000000018002f6fc     libucrt:cvt.obj
 0002:0000b710       $unwind$?fp_format_a@@YAHQEBNPEAD_KQEAD2H_NIQEAU__crt_locale_pointers@@@Z 000000018002f710     libucrt:cvt.obj
 0002:0000b72c       $unwind$__dcrt_get_narrow_environment_from_os 000000018002f72c     libucrt:get_environment_from_os.obj
 0002:0000b72c       $unwind$?fp_format_f_internal@@YAHQEAD_KHQEAU_strflt@@_NQEAU__crt_locale_pointers@@@Z 000000018002f72c     libucrt:cvt.obj
 0002:0000b744       $unwind$?fp_format_g@@YAHQEBNQEAD_K12H_NIQEAU__crt_locale_pointers@@@Z 000000018002f744     libucrt:cvt.obj
 0002:0000b758       $unwind$_fputwc_nolock     000000018002f758     libucrt:fputwc.obj
 0002:0000b774       $unwind$??$common_getenv_s@D@@YAHQEA_KQEAD_KQEBD@Z 000000018002f774     libucrt:getenv.obj
 0002:0000b7b4       $unwind$?filt$0@?0??dllmain_dispatch@@YAHQEAUHINSTANCE__@@KQEAX@Z@4HA 000000018002f7b4     LIBCMT:dll_dllmain.obj
 0002:0000b7b4       $unwind$?fin$0@?0???$common_getenv_s@D@@YAHQEA_KQEAD_KQEBD@Z@4HA 000000018002f7b4     libucrt:getenv.obj
 0002:0000b7bc       $unwind$_fcloseall         000000018002f7bc     libucrt:closeall.obj
 0002:0000b7e0       $unwind$??$?RV<lambda_b521505b218e5242e90febf6bfebc422>@@AEAV<lambda_6978c1fb23f02e42e1d9e99668cc68aa>@@V<lambda_314360699dd331753a4119843814e9a7>@@@?$__crt_seh_guarded_call@H@@QEAAH$$QEAV<lambda_b521505b218e5242e90febf6bfebc422>@@AEAV<lambda_6978c1fb23f02e42e1d9e99668cc68aa>@@$$QEAV<lambda_314360699dd331753a4119843814e9a7>@@@Z 000000018002f7e0     libucrt:commit.obj
 0002:0000b804       $unwind$_write             000000018002f804     libucrt:write.obj
 0002:0000b834       $unwind$_write_nolock      000000018002f834     libucrt:write.obj
 0002:0000b84c       $unwind$?write_double_translated_ansi_nolock@@YA?AUwrite_result@?A0x9c548279@@HQEBDI@Z 000000018002f84c     libucrt:write.obj
 0002:0000b86c       $unwind$?write_text_utf16le_nolock@@YA?AUwrite_result@?A0x9c548279@@HQEBDI@Z 000000018002f86c     libucrt:write.obj
 0002:0000b86c       $unwind$?write_text_ansi_nolock@@YA?AUwrite_result@?A0x9c548279@@HQEBDI@Z 000000018002f86c     libucrt:write.obj
 0002:0000b88c       $unwind$?write_text_utf8_nolock@@YA?AUwrite_result@?A0x9c548279@@HQEBDI@Z 000000018002f88c     libucrt:write.obj
 0002:0000b8b0       $unwind$__acrt_GetStringTypeA 000000018002f8b0     libucrt:getstringtypea.obj
 0002:0000b8d8       $unwind$__acrt_update_thread_locale_data 000000018002f8d8     libucrt:locale_refcounting.obj
 0002:0000b8fc       $unwind$__acrt_locale_free_monetary 000000018002f8fc     libucrt:initmon.obj
 0002:0000b904       $unwind$?destroy_fls@@YAXPEAX@Z 000000018002f904     libucrt:per_thread_data.obj
 0002:0000b904       $unwind$__acrt_locale_free_numeric 000000018002f904     libucrt:initnum.obj
 0002:0000b904       $unwind$__acrt_locale_free_lc_time_if_unreferenced 000000018002f904     libucrt:locale_refcounting.obj
 0002:0000b904       $unwind$_free_base         000000018002f904     libucrt:free_base.obj
 0002:0000b90c       $unwind$__acrt_locale_free_time 000000018002f90c     libucrt:inittime.obj
 0002:0000b91c       $unwind$?GetTableIndexFromLocaleName@@YAHPEB_W@Z 000000018002f91c     libucrt:lcidtoname_downlevel.obj
 0002:0000b934       $unwind$qsort              000000018002f934     libucrt:qsort.obj
 0002:0000b94c       $chain$4$qsort             000000018002f94c     libucrt:qsort.obj
 0002:0000b970       $chain$5$qsort             000000018002f970     libucrt:qsort.obj
 0002:0000b980       $unwind$?shortsort@@YAXPEAD0_KP6AHPEBX2@Z@Z 000000018002f980     libucrt:qsort.obj
 0002:0000b990       $chain$2$?shortsort@@YAXPEAD0_KP6AHPEBX2@Z@Z 000000018002f990     libucrt:qsort.obj
 0002:0000b9ac       $chain$3$?shortsort@@YAXPEAD0_KP6AHPEBX2@Z@Z 000000018002f9ac     libucrt:qsort.obj
 0002:0000b9bc       $unwind$strpbrk            000000018002f9bc     libucrt:strpbrk.obj
 0002:0000b9cc       $unwind$_strnicoll_l       000000018002f9cc     libucrt:strnicol.obj
 0002:0000b9e0       $unwind$__acrt_lowio_destroy_handle_array 000000018002f9e0     libucrt:osfinfo.obj
 0002:0000b9f0       $unwind$__acrt_lowio_ensure_fh_exists 000000018002f9f0     libucrt:osfinfo.obj
 0002:0000ba1c       $unwind$__acrt_fltout      000000018002fa1c     libucrt:cfout.obj
 0002:0000ba3c       $unwind$?divide@__crt_strtox@@YA_KAEAUbig_integer@1@AEBU21@@Z 000000018002fa3c     libucrt:cfout.obj
 0002:0000ba5c       $chain$5$?divide@__crt_strtox@@YA_KAEAUbig_integer@1@AEBU21@@Z 000000018002fa5c     libucrt:cfout.obj
 0002:0000ba70       $chain$6$?divide@__crt_strtox@@YA_KAEAUbig_integer@1@AEBU21@@Z 000000018002fa70     libucrt:cfout.obj
 0002:0000ba80       $unwind$??$write_buffer_nolock@D@@YA_NDV__crt_stdio_stream@@@Z 000000018002fa80     libucrt:_flsbuf.obj
 0002:0000ba90       $unwind$??$write_buffer_nolock@_W@@YA_N_WV__crt_stdio_stream@@@Z 000000018002fa90     libucrt:_flsbuf.obj
 0002:0000baa0       $unwind$fclose             000000018002faa0     libucrt:fclose.obj
 0002:0000bac4       $unwind$??$common_lseek@_J@@YA_JH_JH@Z 000000018002fac4     libucrt:lseek.obj
 0002:0000baf4       $unwind$_strnicmp_l        000000018002faf4     libucrt:strnicmp.obj
 0002:0000bb08       $unwind$__acrt_CompareStringA 000000018002fb08     libucrt:comparestringa.obj
 0002:0000bb18       $unwind$?InternalCompareStringA@@YAHPEAU__crt_locale_pointers@@PEB_WKPEBDH2HH@Z 000000018002fb18     libucrt:comparestringa.obj
 0002:0000bb40       $xdatasym                  000000018002fb40     libucrt:log10.obj
 0002:0000bb4c       $unwind$_close             000000018002fb4c     libucrt:close.obj
 0002:0000bb4c       $unwind$_commit            000000018002fb4c     libucrt:commit.obj
 0002:0000bb54       $unwind$??$?RV<lambda_bfedae4ebbf01fab1bb6dcc6a9e276e0>@@AEAV<lambda_2fe9b910cf3cbf4a0ab98a02ba45b3ec>@@V<lambda_237c231691f317818eb88cc1d5d642d6>@@@?$__crt_seh_guarded_call@H@@QEAAH$$QEAV<lambda_bfedae4ebbf01fab1bb6dcc6a9e276e0>@@AEAV<lambda_2fe9b910cf3cbf4a0ab98a02ba45b3ec>@@$$QEAV<lambda_237c231691f317818eb88cc1d5d642d6>@@@Z 000000018002fb54     libucrt:close.obj
 0002:0000bb78       $unwind$common_control87   000000018002fb78     libucrt:ieee.obj
 0002:0000bba8       $unwind$?fin$0@?0???$common_lseek@_J@@YA_JH_JH@Z@4HA 000000018002fba8     libucrt:lseek.obj
 0002:0000bba8       $unwind$__acrt_uninitialize_locale$fin$0 000000018002fba8     libucrt:wsetlocale.obj
 0002:0000bba8       $unwind$_fcloseall$fin$0   000000018002fba8     libucrt:closeall.obj
 0002:0000bba8       $unwind$raise$fin$0        000000018002fba8     libucrt:signal.obj
 0002:0000bba8       $unwind$_query_new_handler$fin$0 000000018002fba8     libucrt:new_handler.obj
 0002:0000bba8       $unwind$?fin$0@?0???$?RV<lambda_bfedae4ebbf01fab1bb6dcc6a9e276e0>@@AEAV<lambda_2fe9b910cf3cbf4a0ab98a02ba45b3ec>@@V<lambda_237c231691f317818eb88cc1d5d642d6>@@@?$__crt_seh_guarded_call@H@@QEAAH$$QEAV<lambda_bfedae4ebbf01fab1bb6dcc6a9e276e0>@@AEAV<lambda_2fe9b910cf3cbf4a0ab98a02ba45b3ec>@@$$QEAV<lambda_237c231691f317818eb88cc1d5d642d6>@@@Z@4HA 000000018002fba8     libucrt:close.obj
 0002:0000bba8       $unwind$?fin$0@?0???$?RV<lambda_7b91131dde12e1c3dfc74ff76b3f2eac>@@AEAV<lambda_dd75445284c072d0bd3768540cc698fa>@@V<lambda_16bc4ecb55b4718497c16bceaea2ceaf>@@@?$__crt_seh_guarded_call@H@@QEAAH$$QEAV<lambda_7b91131dde12e1c3dfc74ff76b3f2eac>@@AEAV<lambda_dd75445284c072d0bd3768540cc698fa>@@$$QEAV<lambda_16bc4ecb55b4718497c16bceaea2ceaf>@@@Z@4HA 000000018002fba8     libucrt:output.obj
 0002:0000bba8       $unwind$_write$fin$0       000000018002fba8     libucrt:write.obj
 0002:0000bba8       $unwind$_ctrlfp$filt$0     000000018002fba8     libucrt:fpctrl.obj
 0002:0000bba8       $unwind$__acrt_update_thread_multibyte_data$fin$0 000000018002fba8     libucrt:mbctype.obj
 0002:0000bba8       $unwind$__acrt_initialize_lowio$fin$0 000000018002fba8     libucrt:ioinit.obj
 0002:0000bba8       $unwind$common_flush_all$fin$0 000000018002fba8     libucrt:fflush.obj
 0002:0000bba8       $unwind$?fin$0@?0???$?RV<lambda_b521505b218e5242e90febf6bfebc422>@@AEAV<lambda_6978c1fb23f02e42e1d9e99668cc68aa>@@V<lambda_314360699dd331753a4119843814e9a7>@@@?$__crt_seh_guarded_call@H@@QEAAH$$QEAV<lambda_b521505b218e5242e90febf6bfebc422>@@AEAV<lambda_6978c1fb23f02e42e1d9e99668cc68aa>@@$$QEAV<lambda_314360699dd331753a4119843814e9a7>@@@Z@4HA 000000018002fba8     libucrt:commit.obj
 0002:0000bba8       $unwind$common_control87$filt$0 000000018002fba8     libucrt:ieee.obj
 0002:0000bba8       $unwind$fclose$fin$0       000000018002fba8     libucrt:fclose.obj
 0002:0000bba8       $unwind$?fin$0@?0???$?RV<lambda_7a5ef57ff966f610505f1d28a3d40618>@@AEAV<lambda_b721fa326cdb32351d23dfa67958c160>@@V<lambda_5e0fb27672408a07956fe59e48ccb2aa>@@@?$__crt_seh_guarded_call@H@@QEAAH$$QEAV<lambda_7a5ef57ff966f610505f1d28a3d40618>@@AEAV<lambda_b721fa326cdb32351d23dfa67958c160>@@$$QEAV<lambda_5e0fb27672408a07956fe59e48ccb2aa>@@@Z@4HA 000000018002fba8     libucrt:setvbuf.obj
 0002:0000bba8       $unwind$?fin$0@?0??dllmain_crt_process_attach@@YAHQEAUHINSTANCE__@@QEAX@Z@4HA 000000018002fba8     LIBCMT:dll_dllmain.obj
 0002:0000bba8       $unwind$_isindst$fin$0     000000018002fba8     libucrt:tzset.obj
 0002:0000bba8       $unwind$?filt$0@?0??common_exit@@YAXHW4_crt_exit_cleanup_mode@@W4_crt_exit_return_mode@@@Z@4HA 000000018002fba8     libucrt:exit.obj
 0002:0000bba8       $unwind$?fin$0@?0???$?RV<lambda_72d1df2b273a38828b1ce30cbf4cdab5>@@AEAV<lambda_876a65b173b8412d3a47c70a915b0cf4>@@V<lambda_41932305e351933ebe8f8be3ed8bb5dc>@@@?$__crt_seh_guarded_call@X@@QEAAX$$QEAV<lambda_72d1df2b273a38828b1ce30cbf4cdab5>@@AEAV<lambda_876a65b173b8412d3a47c70a915b0cf4>@@$$QEAV<lambda_41932305e351933ebe8f8be3ed8bb5dc>@@@Z@4HA 000000018002fba8     libucrt:per_thread_data.obj
 0002:0000bba8       $unwind$?fin$0@?0???$?RV<lambda_5e887d1dcbef67a5eb4283622ba103bf>@@AEAV<lambda_4466841279450cc726390878d4a41900>@@V<lambda_341c25c0346d94847f1f3c463c57e077>@@@?$__crt_seh_guarded_call@X@@QEAAX$$QEAV<lambda_5e887d1dcbef67a5eb4283622ba103bf>@@AEAV<lambda_4466841279450cc726390878d4a41900>@@$$QEAV<lambda_341c25c0346d94847f1f3c463c57e077>@@@Z@4HA 000000018002fba8     libucrt:per_thread_data.obj
 0002:0000bba8       $unwind$fflush$fin$0       000000018002fba8     libucrt:fflush.obj
 0002:0000bba8       $unwind$?fin$0@?0???$?RV<lambda_99476a1ad63dd22509b5d3e65b0ffc95>@@AEAV<lambda_ad1ced32f4ac17aa236e5ef05d6b3b7c>@@V<lambda_f7424dd8d45958661754dc4f2697e9c3>@@@?$__crt_seh_guarded_call@X@@QEAAX$$QEAV<lambda_99476a1ad63dd22509b5d3e65b0ffc95>@@AEAV<lambda_ad1ced32f4ac17aa236e5ef05d6b3b7c>@@$$QEAV<lambda_f7424dd8d45958661754dc4f2697e9c3>@@@Z@4HA 000000018002fba8     libucrt:mbctype.obj
 0002:0000bba8       $unwind$?fin$1@?0??common_exit@@YAXHW4_crt_exit_cleanup_mode@@W4_crt_exit_return_mode@@@Z@4HA 000000018002fba8     libucrt:exit.obj
 0002:0000bba8       $unwind$__tzset$fin$0      000000018002fba8     libucrt:tzset.obj
 0002:0000bba8       $unwind$__acrt_update_thread_locale_data$fin$0 000000018002fba8     libucrt:locale_refcounting.obj
 0002:0000bba8       $unwind$__acrt_lowio_ensure_fh_exists$fin$0 000000018002fba8     libucrt:osfinfo.obj
 0002:0000bba8       $unwind$?fin$0@?0???$?RV<lambda_b8c45f8f788dd370798f47cfe8ac3a86>@@AEAV<lambda_4e60a939b0d047cfe11ddc22648dfba9>@@V<lambda_332c3edc96d0294ec56c57d38c1cdfd5>@@@?$__crt_seh_guarded_call@H@@QEAAH$$QEAV<lambda_b8c45f8f788dd370798f47cfe8ac3a86>@@AEAV<lambda_4e60a939b0d047cfe11ddc22648dfba9>@@$$QEAV<lambda_332c3edc96d0294ec56c57d38c1cdfd5>@@@Z@4HA 000000018002fba8     libucrt:onexit.obj
 0002:0000bba8       $unwind$_IsNonwritableInCurrentImage$filt$0 000000018002fba8     LIBCMT:pesect.obj
 0002:0000bba8       $unwind$?fin$0@?0???$?RV<lambda_c36588078e9f5dfd39652860aa6b3aaf>@@AEAV<lambda_ec61778202f4f5fc7e7711acc23c3bca>@@V<lambda_dc9d2797ccde5d239b4a0efae8ebd7db>@@@?$__crt_seh_guarded_call@P6AXH@Z@@QEAAP6AXH@Z$$QEAV<lambda_c36588078e9f5dfd39652860aa6b3aaf>@@AEAV<lambda_ec61778202f4f5fc7e7711acc23c3bca>@@$$QEAV<lambda_dc9d2797ccde5d239b4a0efae8ebd7db>@@@Z@4HA 000000018002fba8     libucrt:signal.obj
 0002:0000bba8       $unwind$?fin$0@?0???$?RV<lambda_e24bbb7b643b32fcea6fa61b31d4c984>@@AEAV<lambda_275893d493268fdec8709772e3fcec0e>@@V<lambda_9d71df4d7cf3f480f8d633942495c3b0>@@@?$__crt_seh_guarded_call@H@@QEAAH$$QEAV<lambda_e24bbb7b643b32fcea6fa61b31d4c984>@@AEAV<lambda_275893d493268fdec8709772e3fcec0e>@@$$QEAV<lambda_9d71df4d7cf3f480f8d633942495c3b0>@@@Z@4HA 000000018002fba8     libucrt:onexit.obj
 0002:0000bba8       $unwind$?fin$0@?0??dllmain_crt_process_detach@@YAH_N@Z@4HA 000000018002fba8     LIBCMT:dll_dllmain.obj
 0002:0000bba8       $unwind$common_flush_all$fin$1 000000018002fba8     libucrt:fflush.obj
 0002:0000bba8       $unwind$?fin$0@?0???$?RV<lambda_fb3a7dec4e47f37f22dae91bb15c9095>@@AEAV<lambda_698284760c8add0bfb0756c19673e34b>@@V<lambda_dfb8eca1e75fef3034a8fb18dd509707>@@@?$__crt_seh_guarded_call@X@@QEAAX$$QEAV<lambda_fb3a7dec4e47f37f22dae91bb15c9095>@@AEAV<lambda_698284760c8add0bfb0756c19673e34b>@@$$QEAV<lambda_dfb8eca1e75fef3034a8fb18dd509707>@@@Z@4HA 000000018002fba8     libucrt:per_thread_data.obj
 0002:0000bba8       $unwind$?fin$0@?0???$?RV<lambda_46352004c1216016012b18bd6f87e700>@@AEAV<lambda_3bd07e1a1191394380780325891bf33f>@@V<lambda_334532d3f185bcaa59b5be82d7d22bff>@@@?$__crt_seh_guarded_call@X@@QEAAX$$QEAV<lambda_46352004c1216016012b18bd6f87e700>@@AEAV<lambda_3bd07e1a1191394380780325891bf33f>@@$$QEAV<lambda_334532d3f185bcaa59b5be82d7d22bff>@@@Z@4HA 000000018002fba8     libucrt:per_thread_data.obj
 0002:0000bbb0       $unwind$_call_matherr      000000018002fbb0     libucrt:libm_error.obj
 0002:0000bbb8       $unwind$_handle_error      000000018002fbb8     libucrt:libm_error.obj
 0002:0000bbd8       $unwind$__acrt_initialize_fma3 000000018002fbd8     libucrt:fma3_available.obj
 0002:0000bbe0       $unwind$_log_special_common 000000018002fbe0     libucrt:log_special.obj
 0002:0000bbec       $unwind$_invalid_parameter_noinfo 000000018002fbec     libucrt:invalid_parameter.obj
 0002:0000bbec       $unwind$_log10_special     000000018002fbec     libucrt:log_special.obj
 0002:0000bbec       $unwind$atol               000000018002fbec     libucrt:atox.obj
 0002:0000bbec       $unwind$wctomb_s           000000018002fbec     libucrt:wctomb.obj
 0002:0000bbec       $unwind$_itow_s            000000018002fbec     libucrt:xtoa.obj
 0002:0000bbf8       $xdatasym                  000000018002fbf8     libucrt:fpsr.obj
 0002:0000bc00       $unwind$_raise_exc_ex      000000018002fc00     libucrt:fpexcept.obj
 0002:0000bc14       $unwind$_ctrlfp            000000018002fc14     libucrt:fpctrl.obj
 0002:0000bc3c       $unwind$?DloadObtainSection@@YAPEAXPEAK0@Z 000000018002fc3c     DelayImp:delayhlp.obj
 0002:0000bc4c       $unwind$?DloadMakePermanentImageCommit@@YAXPEAX_K@Z 000000018002fc4c     DelayImp:delayhlp.obj
 0002:0000bc58       $unwind$?DloadProtectSection@@YAXKPEAK@Z 000000018002fc58     DelayImp:delayhlp.obj
 0002:0000bc68       $unwind$__delayLoadHelper2 000000018002fc68     DelayImp:delayhlp.obj
 0002:0000bc80       $unwind$_IsNonwritableInCurrentImage 000000018002fc80     LIBCMT:pesect.obj
 0002:0000bca4       $unwind$__GSHandlerCheckCommon 000000018002fca4     LIBCMT:_gshandler_.obj
 0002:0000bcb0       $xdatasym                  000000018002fcb0     LIBCMT:_chkstk_.obj
 0002:0000bcb8       $xdatasym                  000000018002fcb8     libvcruntime:memcpy.obj
 0002:0000bcc0       $xdatasym                  000000018002fcc0     libvcruntime:memcmp.obj
 0002:0000bcc4       $unwind$strchr             000000018002fcc4     libvcruntime:strchr.obj
 0002:0000bcc4       $unwind$strrchr            000000018002fcc4     libvcruntime:strrchr.obj
 0002:0000d7e0       .edata                     00000001800317e0     odbc_bindings.exp
 0002:0000d808       rgpv                       0000000180031808     odbc_bindings.exp
 0002:0000d80c       rgszName                   000000018003180c     odbc_bindings.exp
 0002:0000d810       rgwOrd                     0000000180031810     odbc_bindings.exp
 0002:0000d812       szName                     0000000180031812     odbc_bindings.exp
 0002:0000d825       $N00001                    0000000180031825     odbc_bindings.exp
 0002:0000dbd4       .idata$6                   0000000180031bd4     kernel32:KERNEL32.dll
 0002:0000dbe2       .idata$6                   0000000180031be2     odbc32:ODBC32.dll
 0003:00000030       ?__vcrt_flsindex@@3KA      0000000180033030     libvcruntime:per_thread_data.obj
 0003:00000044       errno_no_memory            0000000180033044     libucrt:errno.obj
 0003:00000048       doserrno_no_memory         0000000180033048     libucrt:errno.obj
 0003:00000050       tzstd_program              0000000180033050     libucrt:timeset.obj
 0003:00000090       tzdst_program              0000000180033090     libucrt:timeset.obj
 0003:000000d0       tzname_states              00000001800330d0     libucrt:timeset.obj
 0003:000000e0       dststart                   00000001800330e0     libucrt:tzset.obj
 0003:000000f0       dstend                     00000001800330f0     libucrt:tzset.obj
 0003:00000210       __acrt_flsindex            0000000180033210     libucrt:per_thread_data.obj
 0003:000005c0       __rgctypeflag              00000001800335c0     libucrt:mbctype.obj
 0003:000005d0       __rgcode_page_info         00000001800335d0     libucrt:mbctype.obj
 0003:000009c8       ?dazSupported@?1??common_control87@@9@9 00000001800339c8     libucrt:ieee.obj
 0003:000009d0       ?dazSupported@?1??_ctrlfp@@9@9 00000001800339d0     libucrt:fpctrl.obj
 0003:000009f0       _module                    00000001800339f0     odbc.obj
 0003:00000da8       ?module_local_atexit_table@@3U_onexit_table_t@@A 0000000180033da8     LIBCMT:utility.obj
 0003:00000dc0       ?module_local_at_quick_exit_table@@3U_onexit_table_t@@A 0000000180033dc0     LIBCMT:utility.obj
 0003:00000dd8       ?is_initialized_as_dll@@3_NA 0000000180033dd8     LIBCMT:utility.obj
 0003:00000ddc       ?__proc_attached@@3HA      0000000180033ddc     LIBCMT:dll_dllmain.obj
 0003:00000de0       GS_ExceptionRecord         0000000180033de0     LIBCMT:gs_report.obj
 0003:00000e80       GS_ContextRecord           0000000180033e80     LIBCMT:gs_report.obj
 0003:00001380       ?__vcrt_startup_thread_ptd@@3U__vcrt_ptd@@A 0000000180034380     libvcruntime:per_thread_data.obj
 0003:000013f8       __vcrt_lock_table          00000001800343f8     libvcruntime:locks.obj
 0003:00001420       __vcrt_locks_initialized   0000000180034420     libvcruntime:locks.obj
 0003:00001430       ?module_handles@@3PAPEAUHINSTANCE__@@A 0000000180034430     libvcruntime:winapi_downlevel.obj
 0003:00001450       ?encoded_function_pointers@@3PAPEAXA 0000000180034450     libvcruntime:winapi_downlevel.obj
 0003:000014e8       ?heap@@3V_HeapManager@@A   00000001800344e8     libvcruntime:undname.obj
 0003:00001510       __acrt_new_handler         0000000180034510     libucrt:new_handler.obj
 0003:00001518       c_termination_complete     0000000180034518     libucrt:exit.obj
 0003:00001520       thread_local_exit_callback_func 0000000180034520     libucrt:exit.obj
 0003:00001528       ?c_exit_complete@?5??common_exit@@YAXHW4_crt_exit_cleanup_mode@@W4_crt_exit_return_mode@@@Z@4_NA 0000000180034528     libucrt:exit.obj
 0003:00001530       ?program_name@?5???$common_configure_argv@D@@YAHW4_crt_argv_mode@@@Z@4PADA 0000000180034530     libucrt:argv_parsing.obj
 0003:00001688       __acrt_invalid_parameter_handler 0000000180034688     libucrt:invalid_parameter.obj
 0003:000016a0       _tzname                    00000001800346a0     libucrt:timeset.obj
 0003:000016a8       last_tz                    00000001800346a8     libucrt:tzset.obj
 0003:000016b0       tz_api_used                00000001800346b0     libucrt:tzset.obj
 0003:000016c0       tz_info                    00000001800346c0     libucrt:tzset.obj
 0003:0000176c       ?first_time@?1??__tzset@@9@4JA 000000018003476c     libucrt:tzset.obj
 0003:00001770       __acrt_app_type            0000000180034770     libucrt:report_runtime_error.obj
 0003:00001774       __acrt_error_mode          0000000180034774     libucrt:set_error_mode.obj
 0003:00001790       ctrlc_action               0000000180034790     libucrt:signal.obj
 0003:00001798       ctrlbreak_action           0000000180034798     libucrt:signal.obj
 0003:000017a0       abort_action               00000001800347a0     libucrt:signal.obj
 0003:000017a8       term_action                00000001800347a8     libucrt:signal.obj
 0003:000017c0       __acrt_lock_table          00000001800347c0     libucrt:locks.obj
 0003:000019c8       __acrt_locks_initialized   00000001800349c8     libucrt:locks.obj
 0003:000019d0       module_handles             00000001800349d0     libucrt:winapi_thunks.obj
 0003:00001a70       encoded_function_pointers  0000000180034a70     libucrt:winapi_thunks.obj
 0003:00001b70       ?state_cache@?1??__acrt_is_packaged_app@@9@4JA 0000000180034b70     libucrt:winapi_thunks.obj
 0003:00001b8c       fSystemSet                 0000000180034b8c     libucrt:mbctype.obj
 0003:00001b98       ?initialized@?1??__acrt_initialize_multibyte@@9@4_NA 0000000180034b98     libucrt:mbctype.obj
 0003:00001fd8       user_matherr               0000000180034fd8     libucrt:matherr.obj
 0003:00001ff0       __acrt_global_new_mode     0000000180034ff0     libucrt:new_mode.obj
 0003:00001ff8       enable_percent_n           0000000180034ff8     libucrt:printf_count_output.obj
 0004:00000000       $pdata$?FunctionCallbackWrapper@imp@Nan@@YAXAEBV?$FunctionCallbackInfo@VValue@v8@@@v8@@@Z 0000000180036000     odbc.obj
 0004:0000000c       $pdata$?New@?$Factory@VFunctionTemplate@v8@@@imp@Nan@@SA?AV?$Local@VFunctionTemplate@v8@@@v8@@P6AXAEBV?$FunctionCallbackInfo@VValue@v8@@@3@@ZV?$Local@VValue@v8@@@5@V?$Local@VSignature@v8@@@5@@Z 000000018003600c     odbc.obj
 0004:00000018       $pdata$0$?New@?$Factory@VFunctionTemplate@v8@@@imp@Nan@@SA?AV?$Local@VFunctionTemplate@v8@@@v8@@P6AXAEBV?$FunctionCallbackInfo@VValue@v8@@@3@@ZV?$Local@VValue@v8@@@5@V?$Local@VSignature@v8@@@5@@Z 0000000180036018     odbc.obj
 0004:00000024       $pdata$1$?New@?$Factory@VFunctionTemplate@v8@@@imp@Nan@@SA?AV?$Local@VFunctionTemplate@v8@@@v8@@P6AXAEBV?$FunctionCallbackInfo@VValue@v8@@@3@@ZV?$Local@VValue@v8@@@5@V?$Local@VSignature@v8@@@5@@Z 0000000180036024     odbc.obj
 0004:00000030       $pdata$2$?New@?$Factory@VFunctionTemplate@v8@@@imp@Nan@@SA?AV?$Local@VFunctionTemplate@v8@@@v8@@P6AXAEBV?$FunctionCallbackInfo@VValue@v8@@@3@@ZV?$Local@VValue@v8@@@5@V?$Local@VSignature@v8@@@5@@Z 0000000180036030     odbc.obj
 0004:0000003c       $pdata$3$?New@?$Factory@VFunctionTemplate@v8@@@imp@Nan@@SA?AV?$Local@VFunctionTemplate@v8@@@v8@@P6AXAEBV?$FunctionCallbackInfo@VValue@v8@@@3@@ZV?$Local@VValue@v8@@@5@V?$Local@VSignature@v8@@@5@@Z 000000018003603c     odbc.obj
 0004:00000048       $pdata$?Call@Callback@Nan@@QEBA?AV?$Local@VValue@v8@@@v8@@HQEAV34@@Z 0000000180036048     odbc.obj
 0004:00000054       $pdata$?SetPrototypeMethod@Nan@@YAXV?$Local@VFunctionTemplate@v8@@@v8@@PEBDP6AXAEBV?$FunctionCallbackInfo@VValue@v8@@@1@@Z@Z 0000000180036054     odbc.obj
 0004:00000060       $pdata$?Wrap@ObjectWrap@Nan@@IEAAXV?$Local@VObject@v8@@@v8@@@Z 0000000180036060     odbc.obj
 0004:0000006c       $pdata$?Ref@ObjectWrap@Nan@@MEAAXXZ 000000018003606c     odbc.obj
 0004:00000078       $pdata$?Unref@ObjectWrap@Nan@@MEAAXXZ 0000000180036078     odbc.obj
 0004:00000084       $pdata$?WeakCallback@ObjectWrap@Nan@@CAXAEBV?$WeakCallbackInfo@VObjectWrap@Nan@@@v8@@@Z 0000000180036084     odbc.obj
 0004:00000090       $pdata$??_GObjectWrap@Nan@@UEAAPEAXI@Z 0000000180036090     odbc.obj
 0004:0000009c       $pdata$??_GODBC@@MEAAPEAXI@Z 000000018003609c     odbc.obj
 0004:000000a8       $pdata$?Init@ODBC@@SAXV?$Local@VObject@v8@@@v8@@@Z 00000001800360a8     odbc.obj
 0004:000000b4       $pdata$??1ODBC@@MEAA@XZ    00000001800360b4     odbc.obj
 0004:000000c0       $pdata$?New@ODBC@@SAXAEBV?$FunctionCallbackInfo@VValue@v8@@@Nan@@@Z 00000001800360c0     odbc.obj
 0004:000000cc       $pdata$?CreateConnection@ODBC@@SAXAEBV?$FunctionCallbackInfo@VValue@v8@@@Nan@@@Z 00000001800360cc     odbc.obj
 0004:000000d8       $pdata$?UV_CreateConnection@ODBC@@KAXPEAUuv_work_s@@@Z 00000001800360d8     odbc.obj
 0004:000000e4       $pdata$?UV_AfterCreateConnection@ODBC@@KAXPEAUuv_work_s@@H@Z 00000001800360e4     odbc.obj
 0004:000000f0       $pdata$1$?UV_AfterCreateConnection@ODBC@@KAXPEAUuv_work_s@@H@Z 00000001800360f0     odbc.obj
 0004:000000fc       $pdata$2$?UV_AfterCreateConnection@ODBC@@KAXPEAUuv_work_s@@H@Z 00000001800360fc     odbc.obj
 0004:00000108       $pdata$?CreateConnectionSync@ODBC@@SAXAEBV?$FunctionCallbackInfo@VValue@v8@@@Nan@@@Z 0000000180036108     odbc.obj
 0004:00000114       $pdata$?GetColumns@ODBC@@SAPEAUColumn@@PEAXPEAF@Z 0000000180036114     odbc.obj
 0004:00000120       $pdata$3$?GetColumns@ODBC@@SAPEAUColumn@@PEAXPEAF@Z 0000000180036120     odbc.obj
 0004:0000012c       $pdata$4$?GetColumns@ODBC@@SAPEAUColumn@@PEAXPEAF@Z 000000018003612c     odbc.obj
 0004:00000138       $pdata$?FreeColumns@ODBC@@SAXPEAUColumn@@PEAF@Z 0000000180036138     odbc.obj
 0004:00000144       $pdata$0$?FreeColumns@ODBC@@SAXPEAUColumn@@PEAF@Z 0000000180036144     odbc.obj
 0004:00000150       $pdata$1$?FreeColumns@ODBC@@SAXPEAUColumn@@PEAF@Z 0000000180036150     odbc.obj
 0004:0000015c       $pdata$?GetColumnValue@ODBC@@SA?AV?$Local@VValue@v8@@@v8@@PEAXUColumn@@PEAGH@Z 000000018003615c     odbc.obj
 0004:00000168       $pdata$0$?GetColumnValue@ODBC@@SA?AV?$Local@VValue@v8@@@v8@@PEAXUColumn@@PEAGH@Z 0000000180036168     odbc.obj
 0004:00000174       $pdata$1$?GetColumnValue@ODBC@@SA?AV?$Local@VValue@v8@@@v8@@PEAXUColumn@@PEAGH@Z 0000000180036174     odbc.obj
 0004:00000180       $pdata$3$?GetColumnValue@ODBC@@SA?AV?$Local@VValue@v8@@@v8@@PEAXUColumn@@PEAGH@Z 0000000180036180     odbc.obj
 0004:0000018c       $pdata$4$?GetColumnValue@ODBC@@SA?AV?$Local@VValue@v8@@@v8@@PEAXUColumn@@PEAGH@Z 000000018003618c     odbc.obj
 0004:00000198       $pdata$?GetRecordTuple@ODBC@@SA?AV?$Local@VValue@v8@@@v8@@PEAXPEAUColumn@@PEAFPEAGH@Z 0000000180036198     odbc.obj
 0004:000001a4       $pdata$3$?GetRecordTuple@ODBC@@SA?AV?$Local@VValue@v8@@@v8@@PEAXPEAUColumn@@PEAFPEAGH@Z 00000001800361a4     odbc.obj
 0004:000001b0       $pdata$4$?GetRecordTuple@ODBC@@SA?AV?$Local@VValue@v8@@@v8@@PEAXPEAUColumn@@PEAFPEAGH@Z 00000001800361b0     odbc.obj
 0004:000001bc       $pdata$?GetRecordArray@ODBC@@SA?AV?$Local@VValue@v8@@@v8@@PEAXPEAUColumn@@PEAFPEAGH@Z 00000001800361bc     odbc.obj
 0004:000001c8       $pdata$2$?GetRecordArray@ODBC@@SA?AV?$Local@VValue@v8@@@v8@@PEAXPEAUColumn@@PEAFPEAGH@Z 00000001800361c8     odbc.obj
 0004:000001d4       $pdata$3$?GetRecordArray@ODBC@@SA?AV?$Local@VValue@v8@@@v8@@PEAXPEAUColumn@@PEAFPEAGH@Z 00000001800361d4     odbc.obj
 0004:000001e0       $pdata$?GetParametersFromArray@ODBC@@SAPEAUParameter@@V?$Local@VArray@v8@@@v8@@PEAH@Z 00000001800361e0     odbc.obj
 0004:000001ec       $pdata$3$?GetParametersFromArray@ODBC@@SAPEAUParameter@@V?$Local@VArray@v8@@@v8@@PEAH@Z 00000001800361ec     odbc.obj
 0004:000001f8       $pdata$4$?GetParametersFromArray@ODBC@@SAPEAUParameter@@V?$Local@VArray@v8@@@v8@@PEAH@Z 00000001800361f8     odbc.obj
 0004:00000204       $pdata$?CallbackSQLError@ODBC@@SA?AV?$Local@VValue@v8@@@v8@@FPEAXPEADPEAVCallback@Nan@@@Z 0000000180036204     odbc.obj
 0004:00000210       $pdata$?GetSQLError@ODBC@@SA?AV?$Local@VObject@v8@@@v8@@FPEAXPEAD@Z 0000000180036210     odbc.obj
 0004:0000021c       $pdata$2$?GetSQLError@ODBC@@SA?AV?$Local@VObject@v8@@@v8@@FPEAXPEAD@Z 000000018003621c     odbc.obj
 0004:00000228       $pdata$3$?GetSQLError@ODBC@@SA?AV?$Local@VObject@v8@@@v8@@FPEAXPEAD@Z 0000000180036228     odbc.obj
 0004:00000234       $pdata$4$?GetSQLError@ODBC@@SA?AV?$Local@VObject@v8@@@v8@@FPEAXPEAD@Z 0000000180036234     odbc.obj
 0004:00000240       $pdata$5$?GetSQLError@ODBC@@SA?AV?$Local@VObject@v8@@@v8@@FPEAXPEAD@Z 0000000180036240     odbc.obj
 0004:0000024c       $pdata$init                000000018003624c     odbc.obj
 0004:00000258       $pdata$??$Unwrap@VODBCStatement@@@ObjectWrap@Nan@@SAPEAVODBCStatement@@V?$Local@VObject@v8@@@v8@@@Z 0000000180036258     odbc_statement.obj
 0004:00000258       $pdata$??$Unwrap@VODBC@@@ObjectWrap@Nan@@SAPEAVODBC@@V?$Local@VObject@v8@@@v8@@@Z 0000000180036258     odbc.obj
 0004:00000258       $pdata$??$Unwrap@VODBCResult@@@ObjectWrap@Nan@@SAPEAVODBCResult@@V?$Local@VObject@v8@@@v8@@@Z 0000000180036258     odbc_result.obj
 0004:00000258       $pdata$??$Unwrap@VODBCConnection@@@ObjectWrap@Nan@@SAPEAVODBCConnection@@V?$Local@VObject@v8@@@v8@@@Z 0000000180036258     odbc_connection.obj
 0004:00000264       $pdata$?GetterCallbackWrapper@imp@Nan@@YAXV?$Local@VName@v8@@@v8@@AEBV?$PropertyCallbackInfo@VValue@v8@@@4@@Z 0000000180036264     odbc_connection.obj
 0004:00000270       $pdata$?SetterCallbackWrapper@imp@Nan@@YAXV?$Local@VName@v8@@@v8@@V?$Local@VValue@v8@@@4@AEBV?$PropertyCallbackInfo@X@4@@Z 0000000180036270     odbc_connection.obj
 0004:0000027c       $pdata$?ThrowError@Nan@@YAXPEBD@Z 000000018003627c     odbc_connection.obj
 0004:00000288       $pdata$?ThrowTypeError@Nan@@YAXPEBD@Z 0000000180036288     odbc_connection.obj
 0004:00000294       $pdata$?SetAccessor@Nan@@YAXV?$Local@VObjectTemplate@v8@@@v8@@V?$Local@VString@v8@@@3@P6AX1AEBV?$PropertyCallbackInfo@VValue@v8@@@1@@ZP6AX1V?$Local@VValue@v8@@@3@AEBV?$PropertyCallbackInfo@X@1@@Z4W4AccessControl@3@W4PropertyAttribute@3@V?$Local@VAccessorSignature@v8@@@3@@Z 0000000180036294     odbc_connection.obj
 0004:000002a0       $pdata$??_GODBCConnection@@MEAAPEAXI@Z 00000001800362a0     odbc_connection.obj
 0004:000002ac       $pdata$?Init@ODBCConnection@@SAXV?$Local@VObject@v8@@@v8@@@Z 00000001800362ac     odbc_connection.obj
 0004:000002b8       $pdata$??1ODBCConnection@@MEAA@XZ 00000001800362b8     odbc_connection.obj
 0004:000002c4       $pdata$?New@ODBCConnection@@SAXAEBV?$FunctionCallbackInfo@VValue@v8@@@Nan@@@Z 00000001800362c4     odbc_connection.obj
 0004:000002d0       $pdata$0$?New@ODBCConnection@@SAXAEBV?$FunctionCallbackInfo@VValue@v8@@@Nan@@@Z 00000001800362d0     odbc_connection.obj
 0004:000002dc       $pdata$1$?New@ODBCConnection@@SAXAEBV?$FunctionCallbackInfo@VValue@v8@@@Nan@@@Z 00000001800362dc     odbc_connection.obj
 0004:000002e8       $pdata$?ConnectedGetter@ODBCConnection@@SAXV?$Local@VString@v8@@@v8@@AEBV?$PropertyCallbackInfo@VValue@v8@@@Nan@@@Z 00000001800362e8     odbc_connection.obj
 0004:000002f4       $pdata$?ConnectTimeoutGetter@ODBCConnection@@SAXV?$Local@VString@v8@@@v8@@AEBV?$PropertyCallbackInfo@VValue@v8@@@Nan@@@Z 00000001800362f4     odbc_connection.obj
 0004:00000300       $pdata$?ConnectTimeoutSetter@ODBCConnection@@SAXV?$Local@VString@v8@@@v8@@V?$Local@VValue@v8@@@3@AEBV?$PropertyCallbackInfo@X@Nan@@@Z 0000000180036300     odbc_connection.obj
 0004:0000030c       $pdata$?LoginTimeoutGetter@ODBCConnection@@SAXV?$Local@VString@v8@@@v8@@AEBV?$PropertyCallbackInfo@VValue@v8@@@Nan@@@Z 000000018003630c     odbc_connection.obj
 0004:00000318       $pdata$?LoginTimeoutSetter@ODBCConnection@@SAXV?$Local@VString@v8@@@v8@@V?$Local@VValue@v8@@@3@AEBV?$PropertyCallbackInfo@X@Nan@@@Z 0000000180036318     odbc_connection.obj
 0004:00000324       $pdata$?Open@ODBCConnection@@SAXAEBV?$FunctionCallbackInfo@VValue@v8@@@Nan@@@Z 0000000180036324     odbc_connection.obj
 0004:00000330       $pdata$4$?Open@ODBCConnection@@SAXAEBV?$FunctionCallbackInfo@VValue@v8@@@Nan@@@Z 0000000180036330     odbc_connection.obj
 0004:0000033c       $pdata$5$?Open@ODBCConnection@@SAXAEBV?$FunctionCallbackInfo@VValue@v8@@@Nan@@@Z 000000018003633c     odbc_connection.obj
 0004:00000348       $pdata$?UV_Open@ODBCConnection@@KAXPEAUuv_work_s@@@Z 0000000180036348     odbc_connection.obj
 0004:00000354       $pdata$?UV_AfterOpen@ODBCConnection@@KAXPEAUuv_work_s@@H@Z 0000000180036354     odbc_connection.obj
 0004:00000360       $pdata$?OpenSync@ODBCConnection@@SAXAEBV?$FunctionCallbackInfo@VValue@v8@@@Nan@@@Z 0000000180036360     odbc_connection.obj
 0004:0000036c       $pdata$3$?OpenSync@ODBCConnection@@SAXAEBV?$FunctionCallbackInfo@VValue@v8@@@Nan@@@Z 000000018003636c     odbc_connection.obj
 0004:00000378       $pdata$4$?OpenSync@ODBCConnection@@SAXAEBV?$FunctionCallbackInfo@VValue@v8@@@Nan@@@Z 0000000180036378     odbc_connection.obj
 0004:00000384       $pdata$?Close@ODBCConnection@@SAXAEBV?$FunctionCallbackInfo@VValue@v8@@@Nan@@@Z 0000000180036384     odbc_connection.obj
 0004:00000390       $pdata$3$?Close@ODBCConnection@@SAXAEBV?$FunctionCallbackInfo@VValue@v8@@@Nan@@@Z 0000000180036390     odbc_connection.obj
 0004:0000039c       $pdata$4$?Close@ODBCConnection@@SAXAEBV?$FunctionCallbackInfo@VValue@v8@@@Nan@@@Z 000000018003639c     odbc_connection.obj
 0004:000003a8       $pdata$5$?Close@ODBCConnection@@SAXAEBV?$FunctionCallbackInfo@VValue@v8@@@Nan@@@Z 00000001800363a8     odbc_connection.obj
 0004:000003b4       $pdata$6$?Close@ODBCConnection@@SAXAEBV?$FunctionCallbackInfo@VValue@v8@@@Nan@@@Z 00000001800363b4     odbc_connection.obj
 0004:000003c0       $pdata$?UV_Close@ODBCConnection@@KAXPEAUuv_work_s@@@Z 00000001800363c0     odbc_connection.obj
 0004:000003cc       $pdata$?UV_AfterClose@ODBCConnection@@KAXPEAUuv_work_s@@H@Z 00000001800363cc     odbc_connection.obj
 0004:000003d8       $pdata$?CloseSync@ODBCConnection@@SAXAEBV?$FunctionCallbackInfo@VValue@v8@@@Nan@@@Z 00000001800363d8     odbc_connection.obj
 0004:000003e4       $pdata$?CreateStatementSync@ODBCConnection@@SAXAEBV?$FunctionCallbackInfo@VValue@v8@@@Nan@@@Z 00000001800363e4     odbc_connection.obj
 0004:000003f0       $pdata$?CreateStatement@ODBCConnection@@SAXAEBV?$FunctionCallbackInfo@VValue@v8@@@Nan@@@Z 00000001800363f0     odbc_connection.obj
 0004:000003fc       $pdata$3$?CreateStatement@ODBCConnection@@SAXAEBV?$FunctionCallbackInfo@VValue@v8@@@Nan@@@Z 00000001800363fc     odbc_connection.obj
 0004:00000408       $pdata$4$?CreateStatement@ODBCConnection@@SAXAEBV?$FunctionCallbackInfo@VValue@v8@@@Nan@@@Z 0000000180036408     odbc_connection.obj
 0004:00000414       $pdata$5$?CreateStatement@ODBCConnection@@SAXAEBV?$FunctionCallbackInfo@VValue@v8@@@Nan@@@Z 0000000180036414     odbc_connection.obj
 0004:00000420       $pdata$6$?CreateStatement@ODBCConnection@@SAXAEBV?$FunctionCallbackInfo@VValue@v8@@@Nan@@@Z 0000000180036420     odbc_connection.obj
 0004:0000042c       $pdata$?UV_CreateStatement@ODBCConnection@@KAXPEAUuv_work_s@@@Z 000000018003642c     odbc_connection.obj
 0004:00000438       $pdata$?UV_AfterCreateStatement@ODBCConnection@@KAXPEAUuv_work_s@@H@Z 0000000180036438     odbc_connection.obj
 0004:00000444       $pdata$?Query@ODBCConnection@@SAXAEBV?$FunctionCallbackInfo@VValue@v8@@@Nan@@@Z 0000000180036444     odbc_connection.obj
 0004:00000450       $pdata$?UV_Query@ODBCConnection@@KAXPEAUuv_work_s@@@Z 0000000180036450     odbc_connection.obj
 0004:0000045c       $pdata$?UV_AfterQuery@ODBCConnection@@KAXPEAUuv_work_s@@H@Z 000000018003645c     odbc_connection.obj
 0004:00000468       $pdata$1$?UV_AfterQuery@ODBCConnection@@KAXPEAUuv_work_s@@H@Z 0000000180036468     odbc_connection.obj
 0004:00000474       $pdata$2$?UV_AfterQuery@ODBCConnection@@KAXPEAUuv_work_s@@H@Z 0000000180036474     odbc_connection.obj
 0004:00000480       $pdata$3$?UV_AfterQuery@ODBCConnection@@KAXPEAUuv_work_s@@H@Z 0000000180036480     odbc_connection.obj
 0004:0000048c       $pdata$?QuerySync@ODBCConnection@@SAXAEBV?$FunctionCallbackInfo@VValue@v8@@@Nan@@@Z 000000018003648c     odbc_connection.obj
 0004:00000498       $pdata$?GetInfoSync@ODBCConnection@@SAXAEBV?$FunctionCallbackInfo@VValue@v8@@@Nan@@@Z 0000000180036498     odbc_connection.obj
 0004:000004a4       $pdata$?Tables@ODBCConnection@@SAXAEBV?$FunctionCallbackInfo@VValue@v8@@@Nan@@@Z 00000001800364a4     odbc_connection.obj
 0004:000004b0       $pdata$0$?Tables@ODBCConnection@@SAXAEBV?$FunctionCallbackInfo@VValue@v8@@@Nan@@@Z 00000001800364b0     odbc_connection.obj
 0004:000004bc       $pdata$1$?Tables@ODBCConnection@@SAXAEBV?$FunctionCallbackInfo@VValue@v8@@@Nan@@@Z 00000001800364bc     odbc_connection.obj
 0004:000004c8       $pdata$2$?Tables@ODBCConnection@@SAXAEBV?$FunctionCallbackInfo@VValue@v8@@@Nan@@@Z 00000001800364c8     odbc_connection.obj
 0004:000004d4       $pdata$3$?Tables@ODBCConnection@@SAXAEBV?$FunctionCallbackInfo@VValue@v8@@@Nan@@@Z 00000001800364d4     odbc_connection.obj
 0004:000004e0       $pdata$?UV_Tables@ODBCConnection@@KAXPEAUuv_work_s@@@Z 00000001800364e0     odbc_connection.obj
 0004:000004ec       $pdata$?Columns@ODBCConnection@@SAXAEBV?$FunctionCallbackInfo@VValue@v8@@@Nan@@@Z 00000001800364ec     odbc_connection.obj
 0004:000004f8       $pdata$0$?Columns@ODBCConnection@@SAXAEBV?$FunctionCallbackInfo@VValue@v8@@@Nan@@@Z 00000001800364f8     odbc_connection.obj
 0004:00000504       $pdata$1$?Columns@ODBCConnection@@SAXAEBV?$FunctionCallbackInfo@VValue@v8@@@Nan@@@Z 0000000180036504     odbc_connection.obj
 0004:00000510       $pdata$2$?Columns@ODBCConnection@@SAXAEBV?$FunctionCallbackInfo@VValue@v8@@@Nan@@@Z 0000000180036510     odbc_connection.obj
 0004:0000051c       $pdata$3$?Columns@ODBCConnection@@SAXAEBV?$FunctionCallbackInfo@VValue@v8@@@Nan@@@Z 000000018003651c     odbc_connection.obj
 0004:00000528       $pdata$?UV_Columns@ODBCConnection@@KAXPEAUuv_work_s@@@Z 0000000180036528     odbc_connection.obj
 0004:00000534       $pdata$?BeginTransactionSync@ODBCConnection@@SAXAEBV?$FunctionCallbackInfo@VValue@v8@@@Nan@@@Z 0000000180036534     odbc_connection.obj
 0004:00000540       $pdata$?BeginTransaction@ODBCConnection@@SAXAEBV?$FunctionCallbackInfo@VValue@v8@@@Nan@@@Z 0000000180036540     odbc_connection.obj
 0004:0000054c       $pdata$0$?BeginTransaction@ODBCConnection@@SAXAEBV?$FunctionCallbackInfo@VValue@v8@@@Nan@@@Z 000000018003654c     odbc_connection.obj
 0004:00000558       $pdata$1$?BeginTransaction@ODBCConnection@@SAXAEBV?$FunctionCallbackInfo@VValue@v8@@@Nan@@@Z 0000000180036558     odbc_connection.obj
 0004:00000564       $pdata$?UV_BeginTransaction@ODBCConnection@@KAXPEAUuv_work_s@@@Z 0000000180036564     odbc_connection.obj
 0004:00000570       $pdata$?UV_AfterEndTransaction@ODBCConnection@@KAXPEAUuv_work_s@@H@Z 0000000180036570     odbc_connection.obj
 0004:00000570       $pdata$?UV_AfterBeginTransaction@ODBCConnection@@KAXPEAUuv_work_s@@H@Z 0000000180036570     odbc_connection.obj
 0004:0000057c       $pdata$?EndTransactionSync@ODBCConnection@@SAXAEBV?$FunctionCallbackInfo@VValue@v8@@@Nan@@@Z 000000018003657c     odbc_connection.obj
 0004:00000588       $pdata$0$?EndTransactionSync@ODBCConnection@@SAXAEBV?$FunctionCallbackInfo@VValue@v8@@@Nan@@@Z 0000000180036588     odbc_connection.obj
 0004:00000594       $pdata$2$?EndTransactionSync@ODBCConnection@@SAXAEBV?$FunctionCallbackInfo@VValue@v8@@@Nan@@@Z 0000000180036594     odbc_connection.obj
 0004:000005a0       $pdata$3$?EndTransactionSync@ODBCConnection@@SAXAEBV?$FunctionCallbackInfo@VValue@v8@@@Nan@@@Z 00000001800365a0     odbc_connection.obj
 0004:000005ac       $pdata$?EndTransaction@ODBCConnection@@SAXAEBV?$FunctionCallbackInfo@VValue@v8@@@Nan@@@Z 00000001800365ac     odbc_connection.obj
 0004:000005b8       $pdata$1$?EndTransaction@ODBCConnection@@SAXAEBV?$FunctionCallbackInfo@VValue@v8@@@Nan@@@Z 00000001800365b8     odbc_connection.obj
 0004:000005c4       $pdata$2$?EndTransaction@ODBCConnection@@SAXAEBV?$FunctionCallbackInfo@VValue@v8@@@Nan@@@Z 00000001800365c4     odbc_connection.obj
 0004:000005d0       $pdata$?UV_EndTransaction@ODBCConnection@@KAXPEAUuv_work_s@@@Z 00000001800365d0     odbc_connection.obj
 0004:000005dc       $pdata$??_GODBCStatement@@MEAAPEAXI@Z 00000001800365dc     odbc_statement.obj
 0004:000005e8       $pdata$?Init@ODBCStatement@@SAXV?$Local@VObject@v8@@@v8@@@Z 00000001800365e8     odbc_statement.obj
 0004:000005f4       $pdata$??1ODBCStatement@@MEAA@XZ 00000001800365f4     odbc_statement.obj
 0004:00000600       $pdata$?Free@ODBCStatement@@QEAAXXZ 0000000180036600     odbc_statement.obj
 0004:0000060c       $pdata$0$?Free@ODBCStatement@@QEAAXXZ 000000018003660c     odbc_statement.obj
 0004:00000618       $pdata$1$?Free@ODBCStatement@@QEAAXXZ 0000000180036618     odbc_statement.obj
 0004:00000624       $pdata$2$?Free@ODBCStatement@@QEAAXXZ 0000000180036624     odbc_statement.obj
 0004:00000630       $pdata$3$?Free@ODBCStatement@@QEAAXXZ 0000000180036630     odbc_statement.obj
 0004:0000063c       $pdata$4$?Free@ODBCStatement@@QEAAXXZ 000000018003663c     odbc_statement.obj
 0004:00000648       $pdata$?New@ODBCStatement@@SAXAEBV?$FunctionCallbackInfo@VValue@v8@@@Nan@@@Z 0000000180036648     odbc_statement.obj
 0004:00000654       $pdata$1$?New@ODBCStatement@@SAXAEBV?$FunctionCallbackInfo@VValue@v8@@@Nan@@@Z 0000000180036654     odbc_statement.obj
 0004:00000660       $pdata$2$?New@ODBCStatement@@SAXAEBV?$FunctionCallbackInfo@VValue@v8@@@Nan@@@Z 0000000180036660     odbc_statement.obj
 0004:0000066c       $pdata$?Execute@ODBCStatement@@SAXAEBV?$FunctionCallbackInfo@VValue@v8@@@Nan@@@Z 000000018003666c     odbc_statement.obj
 0004:00000678       $pdata$3$?Execute@ODBCStatement@@SAXAEBV?$FunctionCallbackInfo@VValue@v8@@@Nan@@@Z 0000000180036678     odbc_statement.obj
 0004:00000684       $pdata$4$?Execute@ODBCStatement@@SAXAEBV?$FunctionCallbackInfo@VValue@v8@@@Nan@@@Z 0000000180036684     odbc_statement.obj
 0004:00000690       $pdata$5$?Execute@ODBCStatement@@SAXAEBV?$FunctionCallbackInfo@VValue@v8@@@Nan@@@Z 0000000180036690     odbc_statement.obj
 0004:0000069c       $pdata$6$?Execute@ODBCStatement@@SAXAEBV?$FunctionCallbackInfo@VValue@v8@@@Nan@@@Z 000000018003669c     odbc_statement.obj
 0004:000006a8       $pdata$?UV_Execute@ODBCStatement@@KAXPEAUuv_work_s@@@Z 00000001800366a8     odbc_statement.obj
 0004:000006a8       $pdata$?UV_ExecuteNonQuery@ODBCStatement@@KAXPEAUuv_work_s@@@Z 00000001800366a8     odbc_statement.obj
 0004:000006b4       $pdata$?UV_AfterExecute@ODBCStatement@@KAXPEAUuv_work_s@@H@Z 00000001800366b4     odbc_statement.obj
 0004:000006c0       $pdata$1$?UV_AfterExecute@ODBCStatement@@KAXPEAUuv_work_s@@H@Z 00000001800366c0     odbc_statement.obj
 0004:000006cc       $pdata$2$?UV_AfterExecute@ODBCStatement@@KAXPEAUuv_work_s@@H@Z 00000001800366cc     odbc_statement.obj
 0004:000006d8       $pdata$3$?UV_AfterExecute@ODBCStatement@@KAXPEAUuv_work_s@@H@Z 00000001800366d8     odbc_statement.obj
 0004:000006e4       $pdata$4$?UV_AfterExecute@ODBCStatement@@KAXPEAUuv_work_s@@H@Z 00000001800366e4     odbc_statement.obj
 0004:000006f0       $pdata$?ExecuteSync@ODBCStatement@@SAXAEBV?$FunctionCallbackInfo@VValue@v8@@@Nan@@@Z 00000001800366f0     odbc_statement.obj
 0004:000006fc       $pdata$1$?ExecuteSync@ODBCStatement@@SAXAEBV?$FunctionCallbackInfo@VValue@v8@@@Nan@@@Z 00000001800366fc     odbc_statement.obj
 0004:00000708       $pdata$2$?ExecuteSync@ODBCStatement@@SAXAEBV?$FunctionCallbackInfo@VValue@v8@@@Nan@@@Z 0000000180036708     odbc_statement.obj
 0004:00000714       $pdata$?ExecuteNonQuery@ODBCStatement@@SAXAEBV?$FunctionCallbackInfo@VValue@v8@@@Nan@@@Z 0000000180036714     odbc_statement.obj
 0004:00000720       $pdata$3$?ExecuteNonQuery@ODBCStatement@@SAXAEBV?$FunctionCallbackInfo@VValue@v8@@@Nan@@@Z 0000000180036720     odbc_statement.obj
 0004:0000072c       $pdata$4$?ExecuteNonQuery@ODBCStatement@@SAXAEBV?$FunctionCallbackInfo@VValue@v8@@@Nan@@@Z 000000018003672c     odbc_statement.obj
 0004:00000738       $pdata$5$?ExecuteNonQuery@ODBCStatement@@SAXAEBV?$FunctionCallbackInfo@VValue@v8@@@Nan@@@Z 0000000180036738     odbc_statement.obj
 0004:00000744       $pdata$6$?ExecuteNonQuery@ODBCStatement@@SAXAEBV?$FunctionCallbackInfo@VValue@v8@@@Nan@@@Z 0000000180036744     odbc_statement.obj
 0004:00000750       $pdata$?UV_AfterExecuteNonQuery@ODBCStatement@@KAXPEAUuv_work_s@@H@Z 0000000180036750     odbc_statement.obj
 0004:0000075c       $pdata$1$?UV_AfterExecuteNonQuery@ODBCStatement@@KAXPEAUuv_work_s@@H@Z 000000018003675c     odbc_statement.obj
 0004:00000768       $pdata$2$?UV_AfterExecuteNonQuery@ODBCStatement@@KAXPEAUuv_work_s@@H@Z 0000000180036768     odbc_statement.obj
 0004:00000774       $pdata$3$?UV_AfterExecuteNonQuery@ODBCStatement@@KAXPEAUuv_work_s@@H@Z 0000000180036774     odbc_statement.obj
 0004:00000780       $pdata$4$?UV_AfterExecuteNonQuery@ODBCStatement@@KAXPEAUuv_work_s@@H@Z 0000000180036780     odbc_statement.obj
 0004:0000078c       $pdata$5$?UV_AfterExecuteNonQuery@ODBCStatement@@KAXPEAUuv_work_s@@H@Z 000000018003678c     odbc_statement.obj
 0004:00000798       $pdata$6$?UV_AfterExecuteNonQuery@ODBCStatement@@KAXPEAUuv_work_s@@H@Z 0000000180036798     odbc_statement.obj
 0004:000007a4       $pdata$?ExecuteNonQuerySync@ODBCStatement@@SAXAEBV?$FunctionCallbackInfo@VValue@v8@@@Nan@@@Z 00000001800367a4     odbc_statement.obj
 0004:000007b0       $pdata$1$?ExecuteNonQuerySync@ODBCStatement@@SAXAEBV?$FunctionCallbackInfo@VValue@v8@@@Nan@@@Z 00000001800367b0     odbc_statement.obj
 0004:000007bc       $pdata$2$?ExecuteNonQuerySync@ODBCStatement@@SAXAEBV?$FunctionCallbackInfo@VValue@v8@@@Nan@@@Z 00000001800367bc     odbc_statement.obj
 0004:000007c8       $pdata$?ExecuteDirect@ODBCStatement@@SAXAEBV?$FunctionCallbackInfo@VValue@v8@@@Nan@@@Z 00000001800367c8     odbc_statement.obj
 0004:000007d4       $pdata$3$?ExecuteDirect@ODBCStatement@@SAXAEBV?$FunctionCallbackInfo@VValue@v8@@@Nan@@@Z 00000001800367d4     odbc_statement.obj
 0004:000007e0       $pdata$4$?ExecuteDirect@ODBCStatement@@SAXAEBV?$FunctionCallbackInfo@VValue@v8@@@Nan@@@Z 00000001800367e0     odbc_statement.obj
 0004:000007ec       $pdata$?UV_ExecuteDirect@ODBCStatement@@KAXPEAUuv_work_s@@@Z 00000001800367ec     odbc_statement.obj
 0004:000007f8       $pdata$?UV_AfterExecuteDirect@ODBCStatement@@KAXPEAUuv_work_s@@H@Z 00000001800367f8     odbc_statement.obj
 0004:00000804       $pdata$1$?UV_AfterExecuteDirect@ODBCStatement@@KAXPEAUuv_work_s@@H@Z 0000000180036804     odbc_statement.obj
 0004:00000810       $pdata$2$?UV_AfterExecuteDirect@ODBCStatement@@KAXPEAUuv_work_s@@H@Z 0000000180036810     odbc_statement.obj
 0004:0000081c       $pdata$3$?UV_AfterExecuteDirect@ODBCStatement@@KAXPEAUuv_work_s@@H@Z 000000018003681c     odbc_statement.obj
 0004:00000828       $pdata$4$?UV_AfterExecuteDirect@ODBCStatement@@KAXPEAUuv_work_s@@H@Z 0000000180036828     odbc_statement.obj
 0004:00000834       $pdata$?ExecuteDirectSync@ODBCStatement@@SAXAEBV?$FunctionCallbackInfo@VValue@v8@@@Nan@@@Z 0000000180036834     odbc_statement.obj
 0004:00000840       $pdata$0$?ExecuteDirectSync@ODBCStatement@@SAXAEBV?$FunctionCallbackInfo@VValue@v8@@@Nan@@@Z 0000000180036840     odbc_statement.obj
 0004:0000084c       $pdata$2$?ExecuteDirectSync@ODBCStatement@@SAXAEBV?$FunctionCallbackInfo@VValue@v8@@@Nan@@@Z 000000018003684c     odbc_statement.obj
 0004:00000858       $pdata$3$?ExecuteDirectSync@ODBCStatement@@SAXAEBV?$FunctionCallbackInfo@VValue@v8@@@Nan@@@Z 0000000180036858     odbc_statement.obj
 0004:00000864       $pdata$4$?ExecuteDirectSync@ODBCStatement@@SAXAEBV?$FunctionCallbackInfo@VValue@v8@@@Nan@@@Z 0000000180036864     odbc_statement.obj
 0004:00000870       $pdata$?PrepareSync@ODBCStatement@@SAXAEBV?$FunctionCallbackInfo@VValue@v8@@@Nan@@@Z 0000000180036870     odbc_statement.obj
 0004:0000087c       $pdata$0$?PrepareSync@ODBCStatement@@SAXAEBV?$FunctionCallbackInfo@VValue@v8@@@Nan@@@Z 000000018003687c     odbc_statement.obj
 0004:00000888       $pdata$1$?PrepareSync@ODBCStatement@@SAXAEBV?$FunctionCallbackInfo@VValue@v8@@@Nan@@@Z 0000000180036888     odbc_statement.obj
 0004:00000894       $pdata$2$?PrepareSync@ODBCStatement@@SAXAEBV?$FunctionCallbackInfo@VValue@v8@@@Nan@@@Z 0000000180036894     odbc_statement.obj
 0004:000008a0       $pdata$4$?PrepareSync@ODBCStatement@@SAXAEBV?$FunctionCallbackInfo@VValue@v8@@@Nan@@@Z 00000001800368a0     odbc_statement.obj
 0004:000008ac       $pdata$5$?PrepareSync@ODBCStatement@@SAXAEBV?$FunctionCallbackInfo@VValue@v8@@@Nan@@@Z 00000001800368ac     odbc_statement.obj
 0004:000008b8       $pdata$?Prepare@ODBCStatement@@SAXAEBV?$FunctionCallbackInfo@VValue@v8@@@Nan@@@Z 00000001800368b8     odbc_statement.obj
 0004:000008c4       $pdata$3$?Prepare@ODBCStatement@@SAXAEBV?$FunctionCallbackInfo@VValue@v8@@@Nan@@@Z 00000001800368c4     odbc_statement.obj
 0004:000008d0       $pdata$4$?Prepare@ODBCStatement@@SAXAEBV?$FunctionCallbackInfo@VValue@v8@@@Nan@@@Z 00000001800368d0     odbc_statement.obj
 0004:000008dc       $pdata$?UV_Prepare@ODBCStatement@@KAXPEAUuv_work_s@@@Z 00000001800368dc     odbc_statement.obj
 0004:000008e8       $pdata$?UV_AfterPrepare@ODBCStatement@@KAXPEAUuv_work_s@@H@Z 00000001800368e8     odbc_statement.obj
 0004:000008f4       $pdata$0$?UV_AfterPrepare@ODBCStatement@@KAXPEAUuv_work_s@@H@Z 00000001800368f4     odbc_statement.obj
 0004:00000900       $pdata$1$?UV_AfterPrepare@ODBCStatement@@KAXPEAUuv_work_s@@H@Z 0000000180036900     odbc_statement.obj
 0004:0000090c       $pdata$2$?UV_AfterPrepare@ODBCStatement@@KAXPEAUuv_work_s@@H@Z 000000018003690c     odbc_statement.obj
 0004:00000918       $pdata$3$?UV_AfterPrepare@ODBCStatement@@KAXPEAUuv_work_s@@H@Z 0000000180036918     odbc_statement.obj
 0004:00000924       $pdata$?BindSync@ODBCStatement@@SAXAEBV?$FunctionCallbackInfo@VValue@v8@@@Nan@@@Z 0000000180036924     odbc_statement.obj
 0004:00000930       $pdata$3$?BindSync@ODBCStatement@@SAXAEBV?$FunctionCallbackInfo@VValue@v8@@@Nan@@@Z 0000000180036930     odbc_statement.obj
 0004:0000093c       $pdata$4$?BindSync@ODBCStatement@@SAXAEBV?$FunctionCallbackInfo@VValue@v8@@@Nan@@@Z 000000018003693c     odbc_statement.obj
 0004:00000948       $pdata$5$?BindSync@ODBCStatement@@SAXAEBV?$FunctionCallbackInfo@VValue@v8@@@Nan@@@Z 0000000180036948     odbc_statement.obj
 0004:00000954       $pdata$6$?BindSync@ODBCStatement@@SAXAEBV?$FunctionCallbackInfo@VValue@v8@@@Nan@@@Z 0000000180036954     odbc_statement.obj
 0004:00000960       $pdata$7$?BindSync@ODBCStatement@@SAXAEBV?$FunctionCallbackInfo@VValue@v8@@@Nan@@@Z 0000000180036960     odbc_statement.obj
 0004:0000096c       $pdata$8$?BindSync@ODBCStatement@@SAXAEBV?$FunctionCallbackInfo@VValue@v8@@@Nan@@@Z 000000018003696c     odbc_statement.obj
 0004:00000978       $pdata$?Bind@ODBCStatement@@SAXAEBV?$FunctionCallbackInfo@VValue@v8@@@Nan@@@Z 0000000180036978     odbc_statement.obj
 0004:00000984       $pdata$5$?Bind@ODBCStatement@@SAXAEBV?$FunctionCallbackInfo@VValue@v8@@@Nan@@@Z 0000000180036984     odbc_statement.obj
 0004:00000990       $pdata$6$?Bind@ODBCStatement@@SAXAEBV?$FunctionCallbackInfo@VValue@v8@@@Nan@@@Z 0000000180036990     odbc_statement.obj
 0004:0000099c       $pdata$7$?Bind@ODBCStatement@@SAXAEBV?$FunctionCallbackInfo@VValue@v8@@@Nan@@@Z 000000018003699c     odbc_statement.obj
 0004:000009a8       $pdata$8$?Bind@ODBCStatement@@SAXAEBV?$FunctionCallbackInfo@VValue@v8@@@Nan@@@Z 00000001800369a8     odbc_statement.obj
 0004:000009b4       $pdata$9$?Bind@ODBCStatement@@SAXAEBV?$FunctionCallbackInfo@VValue@v8@@@Nan@@@Z 00000001800369b4     odbc_statement.obj
 0004:000009c0       $pdata$10$?Bind@ODBCStatement@@SAXAEBV?$FunctionCallbackInfo@VValue@v8@@@Nan@@@Z 00000001800369c0     odbc_statement.obj
 0004:000009cc       $pdata$11$?Bind@ODBCStatement@@SAXAEBV?$FunctionCallbackInfo@VValue@v8@@@Nan@@@Z 00000001800369cc     odbc_statement.obj
 0004:000009d8       $pdata$12$?Bind@ODBCStatement@@SAXAEBV?$FunctionCallbackInfo@VValue@v8@@@Nan@@@Z 00000001800369d8     odbc_statement.obj
 0004:000009e4       $pdata$13$?Bind@ODBCStatement@@SAXAEBV?$FunctionCallbackInfo@VValue@v8@@@Nan@@@Z 00000001800369e4     odbc_statement.obj
 0004:000009f0       $pdata$?UV_Bind@ODBCStatement@@KAXPEAUuv_work_s@@@Z 00000001800369f0     odbc_statement.obj
 0004:000009fc       $pdata$?UV_AfterBind@ODBCStatement@@KAXPEAUuv_work_s@@H@Z 00000001800369fc     odbc_statement.obj
 0004:00000a08       $pdata$1$?UV_AfterBind@ODBCStatement@@KAXPEAUuv_work_s@@H@Z 0000000180036a08     odbc_statement.obj
 0004:00000a14       $pdata$2$?UV_AfterBind@ODBCStatement@@KAXPEAUuv_work_s@@H@Z 0000000180036a14     odbc_statement.obj
 0004:00000a20       $pdata$3$?UV_AfterBind@ODBCStatement@@KAXPEAUuv_work_s@@H@Z 0000000180036a20     odbc_statement.obj
 0004:00000a2c       $pdata$4$?UV_AfterBind@ODBCStatement@@KAXPEAUuv_work_s@@H@Z 0000000180036a2c     odbc_statement.obj
 0004:00000a38       $pdata$?CloseSync@ODBCStatement@@SAXAEBV?$FunctionCallbackInfo@VValue@v8@@@Nan@@@Z 0000000180036a38     odbc_statement.obj
 0004:00000a44       $pdata$0$?CloseSync@ODBCStatement@@SAXAEBV?$FunctionCallbackInfo@VValue@v8@@@Nan@@@Z 0000000180036a44     odbc_statement.obj
 0004:00000a50       $pdata$1$?CloseSync@ODBCStatement@@SAXAEBV?$FunctionCallbackInfo@VValue@v8@@@Nan@@@Z 0000000180036a50     odbc_statement.obj
 0004:00000a5c       $pdata$??_GODBCResult@@MEAAPEAXI@Z 0000000180036a5c     odbc_result.obj
 0004:00000a68       $pdata$?Init@ODBCResult@@SAXV?$Local@VObject@v8@@@v8@@@Z 0000000180036a68     odbc_result.obj
 0004:00000a74       $pdata$??1ODBCResult@@MEAA@XZ 0000000180036a74     odbc_result.obj
 0004:00000a80       $pdata$?Free@ODBCResult@@QEAAXXZ 0000000180036a80     odbc_result.obj
 0004:00000a8c       $pdata$?New@ODBCResult@@SAXAEBV?$FunctionCallbackInfo@VValue@v8@@@Nan@@@Z 0000000180036a8c     odbc_result.obj
 0004:00000a98       $pdata$1$?New@ODBCResult@@SAXAEBV?$FunctionCallbackInfo@VValue@v8@@@Nan@@@Z 0000000180036a98     odbc_result.obj
 0004:00000aa4       $pdata$2$?New@ODBCResult@@SAXAEBV?$FunctionCallbackInfo@VValue@v8@@@Nan@@@Z 0000000180036aa4     odbc_result.obj
 0004:00000ab0       $pdata$?FetchModeGetter@ODBCResult@@SAXV?$Local@VString@v8@@@v8@@AEBV?$PropertyCallbackInfo@VValue@v8@@@Nan@@@Z 0000000180036ab0     odbc_result.obj
 0004:00000abc       $pdata$?FetchModeSetter@ODBCResult@@SAXV?$Local@VString@v8@@@v8@@V?$Local@VValue@v8@@@3@AEBV?$PropertyCallbackInfo@X@Nan@@@Z 0000000180036abc     odbc_result.obj
 0004:00000ac8       $pdata$?Fetch@ODBCResult@@SAXAEBV?$FunctionCallbackInfo@VValue@v8@@@Nan@@@Z 0000000180036ac8     odbc_result.obj
 0004:00000ad4       $pdata$?UV_FetchAll@ODBCResult@@KAXPEAUuv_work_s@@@Z 0000000180036ad4     odbc_result.obj
 0004:00000ad4       $pdata$?UV_Fetch@ODBCResult@@KAXPEAUuv_work_s@@@Z 0000000180036ad4     odbc_result.obj
 0004:00000ae0       $pdata$?UV_AfterFetch@ODBCResult@@KAXPEAUuv_work_s@@H@Z 0000000180036ae0     odbc_result.obj
 0004:00000aec       $pdata$1$?UV_AfterFetch@ODBCResult@@KAXPEAUuv_work_s@@H@Z 0000000180036aec     odbc_result.obj
 0004:00000af8       $pdata$2$?UV_AfterFetch@ODBCResult@@KAXPEAUuv_work_s@@H@Z 0000000180036af8     odbc_result.obj
 0004:00000b04       $pdata$3$?UV_AfterFetch@ODBCResult@@KAXPEAUuv_work_s@@H@Z 0000000180036b04     odbc_result.obj
 0004:00000b10       $pdata$4$?UV_AfterFetch@ODBCResult@@KAXPEAUuv_work_s@@H@Z 0000000180036b10     odbc_result.obj
 0004:00000b1c       $pdata$?FetchSync@ODBCResult@@SAXAEBV?$FunctionCallbackInfo@VValue@v8@@@Nan@@@Z 0000000180036b1c     odbc_result.obj
 0004:00000b28       $pdata$?FetchAll@ODBCResult@@SAXAEBV?$FunctionCallbackInfo@VValue@v8@@@Nan@@@Z 0000000180036b28     odbc_result.obj
 0004:00000b34       $pdata$?UV_AfterFetchAll@ODBCResult@@KAXPEAUuv_work_s@@H@Z 0000000180036b34     odbc_result.obj
 0004:00000b40       $pdata$?FetchAllSync@ODBCResult@@SAXAEBV?$FunctionCallbackInfo@VValue@v8@@@Nan@@@Z 0000000180036b40     odbc_result.obj
 0004:00000b4c       $pdata$5$?FetchAllSync@ODBCResult@@SAXAEBV?$FunctionCallbackInfo@VValue@v8@@@Nan@@@Z 0000000180036b4c     odbc_result.obj
 0004:00000b58       $pdata$6$?FetchAllSync@ODBCResult@@SAXAEBV?$FunctionCallbackInfo@VValue@v8@@@Nan@@@Z 0000000180036b58     odbc_result.obj
 0004:00000b64       $pdata$7$?FetchAllSync@ODBCResult@@SAXAEBV?$FunctionCallbackInfo@VValue@v8@@@Nan@@@Z 0000000180036b64     odbc_result.obj
 0004:00000b70       $pdata$?CloseSync@ODBCResult@@SAXAEBV?$FunctionCallbackInfo@VValue@v8@@@Nan@@@Z 0000000180036b70     odbc_result.obj
 0004:00000b7c       $pdata$0$?CloseSync@ODBCResult@@SAXAEBV?$FunctionCallbackInfo@VValue@v8@@@Nan@@@Z 0000000180036b7c     odbc_result.obj
 0004:00000b88       $pdata$1$?CloseSync@ODBCResult@@SAXAEBV?$FunctionCallbackInfo@VValue@v8@@@Nan@@@Z 0000000180036b88     odbc_result.obj
 0004:00000b94       $pdata$?MoreResultsSync@ODBCResult@@SAXAEBV?$FunctionCallbackInfo@VValue@v8@@@Nan@@@Z 0000000180036b94     odbc_result.obj
 0004:00000ba0       $pdata$?GetColumnNamesSync@ODBCResult@@SAXAEBV?$FunctionCallbackInfo@VValue@v8@@@Nan@@@Z 0000000180036ba0     odbc_result.obj
 0004:00000bac       $pdata$3$?GetColumnNamesSync@ODBCResult@@SAXAEBV?$FunctionCallbackInfo@VValue@v8@@@Nan@@@Z 0000000180036bac     odbc_result.obj
 0004:00000bb8       $pdata$7$?GetColumnNamesSync@ODBCResult@@SAXAEBV?$FunctionCallbackInfo@VValue@v8@@@Nan@@@Z 0000000180036bb8     odbc_result.obj
 0004:00000bc4       $pdata$8$?GetColumnNamesSync@ODBCResult@@SAXAEBV?$FunctionCallbackInfo@VValue@v8@@@Nan@@@Z 0000000180036bc4     odbc_result.obj
 0004:00000bd0       $pdata$9$?GetColumnNamesSync@ODBCResult@@SAXAEBV?$FunctionCallbackInfo@VValue@v8@@@Nan@@@Z 0000000180036bd0     odbc_result.obj
 0004:00000bdc       $pdata$?GetRowCountSync@ODBCResult@@SAXAEBV?$FunctionCallbackInfo@VValue@v8@@@Nan@@@Z 0000000180036bdc     odbc_result.obj
 0004:00000be8       $pdata$strptime            0000000180036be8     strptime.obj
 0004:00000bf4       $pdata$conv_num            0000000180036bf4     strptime.obj
 0004:00000c00       $pdata$strncasecmp         0000000180036c00     strptime.obj
 0004:00000c0c       $pdata$?load_exe_hook@@YAP6A_JXZIPEAUDelayLoadInfo@@@Z 0000000180036c0c     win_delay_load_hook.obj
 0004:00000c30       $pdata$??2@YAPEAX_K@Z      0000000180036c30     LIBCMT:new_scalar.obj
 0004:00000c3c       $pdata$__scrt_acquire_startup_lock 0000000180036c3c     LIBCMT:utility.obj
 0004:00000c48       $pdata$__scrt_dllmain_after_initialize_c 0000000180036c48     LIBCMT:utility.obj
 0004:00000c54       $pdata$__scrt_dllmain_before_initialize_c 0000000180036c54     LIBCMT:utility.obj
 0004:00000c60       $pdata$__scrt_dllmain_crt_thread_attach 0000000180036c60     LIBCMT:utility.obj
 0004:00000c6c       $pdata$__scrt_dllmain_crt_thread_detach 0000000180036c6c     LIBCMT:utility.obj
 0004:00000c78       $pdata$__scrt_dllmain_exception_filter 0000000180036c78     LIBCMT:utility.obj
 0004:00000c84       $pdata$__scrt_dllmain_uninitialize_c 0000000180036c84     LIBCMT:utility.obj
 0004:00000c90       $pdata$__scrt_dllmain_uninitialize_critical 0000000180036c90     LIBCMT:utility.obj
 0004:00000c9c       $pdata$__scrt_initialize_crt 0000000180036c9c     LIBCMT:utility.obj
 0004:00000ca8       $pdata$__scrt_initialize_onexit_tables 0000000180036ca8     LIBCMT:utility.obj
 0004:00000cb4       $pdata$__scrt_is_nonwritable_in_current_image 0000000180036cb4     LIBCMT:utility.obj
 0004:00000cc0       $pdata$__scrt_release_startup_lock 0000000180036cc0     LIBCMT:utility.obj
 0004:00000ccc       $pdata$__scrt_uninitialize_crt 0000000180036ccc     LIBCMT:utility.obj
 0004:00000cd8       $pdata$_onexit             0000000180036cd8     LIBCMT:utility.obj
 0004:00000ce4       $pdata$atexit              0000000180036ce4     LIBCMT:utility.obj
 0004:00000cf0       $pdata$?dllmain_crt_dispatch@@YAHQEAUHINSTANCE__@@KQEAX@Z 0000000180036cf0     LIBCMT:dll_dllmain.obj
 0004:00000cfc       $pdata$?dllmain_crt_process_attach@@YAHQEAUHINSTANCE__@@QEAX@Z 0000000180036cfc     LIBCMT:dll_dllmain.obj
 0004:00000d08       $pdata$?dllmain_crt_process_detach@@YAH_N@Z 0000000180036d08     LIBCMT:dll_dllmain.obj
 0004:00000d14       $pdata$?dllmain_dispatch@@YAHQEAUHINSTANCE__@@KQEAX@Z 0000000180036d14     LIBCMT:dll_dllmain.obj
 0004:00000d20       $pdata$?dllmain_raw@@YAHQEAUHINSTANCE__@@KQEAX@Z 0000000180036d20     LIBCMT:dll_dllmain.obj
 0004:00000d2c       $pdata$_DllMainCRTStartup  0000000180036d2c     LIBCMT:dll_dllmain.obj
 0004:00000d38       $pdata$__raise_securityfailure 0000000180036d38     LIBCMT:gs_report.obj
 0004:00000d44       $pdata$__report_gsfailure  0000000180036d44     LIBCMT:gs_report.obj
 0004:00000d50       $pdata$__report_rangecheckfailure 0000000180036d50     LIBCMT:gs_report.obj
 0004:00000d5c       $pdata$__report_securityfailure 0000000180036d5c     LIBCMT:gs_report.obj
 0004:00000d68       $pdata$capture_current_context 0000000180036d68     LIBCMT:gs_report.obj
 0004:00000d74       $pdata$capture_previous_context 0000000180036d74     LIBCMT:gs_report.obj
 0004:00000d80       $pdata$??0bad_alloc@std@@QEAA@AEBV01@@Z 0000000180036d80     LIBCMT:throw_bad_alloc.obj
 0004:00000d8c       $pdata$??0bad_array_new_length@std@@QEAA@AEBV01@@Z 0000000180036d8c     LIBCMT:throw_bad_alloc.obj
 0004:00000d98       $pdata$??0exception@std@@QEAA@AEBV01@@Z 0000000180036d98     LIBCMT:throw_bad_alloc.obj
 0004:00000da4       $pdata$??_Gbad_alloc@std@@UEAAPEAXI@Z 0000000180036da4     LIBCMT:throw_bad_alloc.obj
 0004:00000da4       $pdata$??_Gbad_array_new_length@std@@UEAAPEAXI@Z 0000000180036da4     LIBCMT:throw_bad_alloc.obj
 0004:00000da4       $pdata$??_Gexception@std@@UEAAPEAXI@Z 0000000180036da4     LIBCMT:throw_bad_alloc.obj
 0004:00000db0       $pdata$?__scrt_throw_std_bad_alloc@@YAXXZ 0000000180036db0     LIBCMT:throw_bad_alloc.obj
 0004:00000dbc       $pdata$?__scrt_throw_std_bad_array_new_length@@YAXXZ 0000000180036dbc     LIBCMT:throw_bad_alloc.obj
 0004:00000dc8       $pdata$__isa_available_init 0000000180036dc8     LIBCMT:_cpu_disp_.obj
 0004:00000dd4       $pdata$__scrt_fastfail     0000000180036dd4     LIBCMT:utility_desktop.obj
 0004:00000de0       $pdata$__security_init_cookie 0000000180036de0     LIBCMT:gs_support.obj
 0004:00000dec       $pdata$__scrt_initialize_default_local_stdio_options 0000000180036dec     LIBCMT:default_local_stdio_options.obj
 0004:00000df8       $pdata$_RTC_Initialize     0000000180036df8     LIBCMT:_initsect_.obj
 0004:00000e04       $pdata$_RTC_Terminate      0000000180036e04     LIBCMT:_initsect_.obj
 0004:00000e10       $pdata$??_Gtype_info@@UEAAPEAXI@Z 0000000180036e10     LIBCMT:std_type_info_static.obj
 0004:00000e1c       $pdata$__vcrt_initialize   0000000180036e1c     libvcruntime:initialization.obj
 0004:00000e28       $pdata$__vcrt_thread_attach 0000000180036e28     libvcruntime:initialization.obj
 0004:00000e34       $pdata$__vcrt_thread_detach 0000000180036e34     libvcruntime:initialization.obj
 0004:00000e40       $pdata$__vcrt_uninitialize 0000000180036e40     libvcruntime:initialization.obj
 0004:00000e4c       $pdata$__vcrt_uninitialize_critical 0000000180036e4c     libvcruntime:initialization.obj
 0004:00000e58       $pdata$__C_specific_handler 0000000180036e58     libvcruntime:_chandler_.obj
 0004:00000e64       $pdata$__std_exception_copy 0000000180036e64     libvcruntime:std_exception.obj
 0004:00000e70       $pdata$__std_exception_destroy 0000000180036e70     libvcruntime:std_exception.obj
 0004:00000e7c       $pdata$_CxxThrowException  0000000180036e7c     libvcruntime:throw.obj
 0004:00000e94       $pdata$__std_type_info_destroy_list 0000000180036e94     libvcruntime:std_type_info.obj
 0004:00000ea0       $pdata$__vcrt_freefls      0000000180036ea0     libvcruntime:per_thread_data.obj
 0004:00000eac       $pdata$__vcrt_freeptd      0000000180036eac     libvcruntime:per_thread_data.obj
 0004:00000eb8       $pdata$__vcrt_getptd_noexit 0000000180036eb8     libvcruntime:per_thread_data.obj
 0004:00000ec4       $pdata$__vcrt_initialize_ptd 0000000180036ec4     libvcruntime:per_thread_data.obj
 0004:00000ed0       $pdata$__vcrt_uninitialize_ptd 0000000180036ed0     libvcruntime:per_thread_data.obj
 0004:00000edc       $pdata$__vcrt_initialize_locks 0000000180036edc     libvcruntime:locks.obj
 0004:00000ee8       $pdata$__vcrt_uninitialize_locks 0000000180036ee8     libvcruntime:locks.obj
 0004:00000ef4       $pdata$?try_get_function@@YAPEAXW4function_id@?A0xc6fdf113@@QEBDQEBW4module_id@2@2@Z 0000000180036ef4     libvcruntime:winapi_downlevel.obj
 0004:00000f00       $pdata$__vcrt_FlsAlloc     0000000180036f00     libvcruntime:winapi_downlevel.obj
 0004:00000f0c       $pdata$__vcrt_FlsFree      0000000180036f0c     libvcruntime:winapi_downlevel.obj
 0004:00000f18       $pdata$__vcrt_FlsGetValue  0000000180036f18     libvcruntime:winapi_downlevel.obj
 0004:00000f24       $pdata$__vcrt_FlsSetValue  0000000180036f24     libvcruntime:winapi_downlevel.obj
 0004:00000f30       $pdata$__vcrt_InitializeCriticalSectionEx 0000000180036f30     libvcruntime:winapi_downlevel.obj
 0004:00000f3c       $pdata$__vcrt_uninitialize_winapi_thunks 0000000180036f3c     libvcruntime:winapi_downlevel.obj
 0004:00000f78       $pdata$??$common_mktime@_J@@YA_JQEAUtm@@_N@Z 0000000180036f78     libucrt:mktime.obj
 0004:00000f84       $pdata$??$common_assert_to_message_box@_W@@YAXQEB_W0IQEAX@Z 0000000180036f84     libucrt:assert.obj
 0004:00000f90       $pdata$??$common_assert_to_message_box_build_string@_W@@YAXQEA_W_KQEB_W2IQEAX@Z 0000000180036f90     libucrt:assert.obj
 0004:00000f9c       $pdata$??$common_assert_to_stderr@_W@@YAXQEB_W0I@Z 0000000180036f9c     libucrt:assert.obj
 0004:00000fa8       $pdata$_wassert            0000000180036fa8     libucrt:assert.obj
 0004:00000fb4       $pdata$fwprintf            0000000180036fb4     libucrt:assert.obj
 0004:00000fc0       $pdata$swprintf            0000000180036fc0     libucrt:assert.obj
 0004:00000fcc       $pdata$??0_LocaleUpdate@@QEAA@QEAU__crt_locale_pointers@@@Z 0000000180036fcc     libucrt:tolower_toupper.obj
 0004:00000fd8       $pdata$?internal_isupper_l@@YA_NHQEAU__crt_locale_pointers@@@Z 0000000180036fd8     libucrt:tolower_toupper.obj
 0004:00000fe4       $pdata$_tolower_l          0000000180036fe4     libucrt:tolower_toupper.obj
 0004:00000ff0       $pdata$tolower             0000000180036ff0     libucrt:tolower_toupper.obj
 0004:00000ffc       $pdata$isdigit             0000000180036ffc     libucrt:_ctype.obj
 0004:00001008       $pdata$isspace             0000000180037008     libucrt:_ctype.obj
 0004:00001014       $pdata$_stricmp            0000000180037014     libucrt:stricmp.obj
 0004:00001020       $pdata$_stricmp_l          0000000180037020     libucrt:stricmp.obj
 0004:0000102c       $pdata$_callnewh           000000018003702c     libucrt:new_handler.obj
 0004:00001038       $pdata$_query_new_handler  0000000180037038     libucrt:new_handler.obj
 0004:00001044       $pdata$_seh_filter_exe     0000000180037044     libucrt:exception_filter.obj
 0004:00001050       $pdata$?common_exit@@YAXHW4_crt_exit_cleanup_mode@@W4_crt_exit_return_mode@@@Z 0000000180037050     libucrt:exit.obj
 0004:0000105c       $pdata$?exit_or_terminate_process@@YAXI@Z 000000018003705c     libucrt:exit.obj
 0004:00001068       $pdata$?try_cor_exit_process@@YAXI@Z 0000000180037068     libucrt:exit.obj
 0004:00001074       $pdata$??$parse_command_line@D@@YAXPEADPEAPEAD0PEA_K2@Z 0000000180037074     libucrt:argv_parsing.obj
 0004:00001080       $pdata$__acrt_allocate_buffer_for_argv 0000000180037080     libucrt:argv_parsing.obj
 0004:0000108c       $pdata$_configure_narrow_argv 000000018003708c     libucrt:argv_parsing.obj
 0004:00001098       $pdata$??$common_get_or_create_environment_nolock@D@@YAPEAPEADXZ 0000000180037098     libucrt:environment_initialization.obj
 0004:000010a4       $pdata$??$common_initialize_environment_nolock@D@@YAHXZ 00000001800370a4     libucrt:environment_initialization.obj
 0004:000010b0       $pdata$??$create_environment@D@@YAQEAPEADQEAD@Z 00000001800370b0     libucrt:environment_initialization.obj
 0004:000010bc       $pdata$??$free_environment@D@@YAXQEAPEAD@Z 00000001800370bc     libucrt:environment_initialization.obj
 0004:000010bc       $pdata$??$free_environment@_W@@YAXQEAPEA_W@Z 00000001800370bc     libucrt:environment_initialization.obj
 0004:000010c8       $pdata$??$initialize_environment_by_cloning_nolock@D@@YAHXZ 00000001800370c8     libucrt:environment_initialization.obj
 0004:000010d4       $pdata$??$uninitialize_environment_internal@D@@YAXAEAPEAPEAD@Z 00000001800370d4     libucrt:environment_initialization.obj
 0004:000010e0       $pdata$??$uninitialize_environment_internal@_W@@YAXAEAPEAPEA_W@Z 00000001800370e0     libucrt:environment_initialization.obj
 0004:000010ec       $pdata$__dcrt_uninitialize_environments_nolock 00000001800370ec     libucrt:environment_initialization.obj
 0004:000010f8       $pdata$??$?RV<lambda_b8c45f8f788dd370798f47cfe8ac3a86>@@AEAV<lambda_4e60a939b0d047cfe11ddc22648dfba9>@@V<lambda_332c3edc96d0294ec56c57d38c1cdfd5>@@@?$__crt_seh_guarded_call@H@@QEAAH$$QEAV<lambda_b8c45f8f788dd370798f47cfe8ac3a86>@@AEAV<lambda_4e60a939b0d047cfe11ddc22648dfba9>@@$$QEAV<lambda_332c3edc96d0294ec56c57d38c1cdfd5>@@@Z 00000001800370f8     libucrt:onexit.obj
 0004:00001104       $pdata$??$?RV<lambda_e24bbb7b643b32fcea6fa61b31d4c984>@@AEAV<lambda_275893d493268fdec8709772e3fcec0e>@@V<lambda_9d71df4d7cf3f480f8d633942495c3b0>@@@?$__crt_seh_guarded_call@H@@QEAAH$$QEAV<lambda_e24bbb7b643b32fcea6fa61b31d4c984>@@AEAV<lambda_275893d493268fdec8709772e3fcec0e>@@$$QEAV<lambda_9d71df4d7cf3f480f8d633942495c3b0>@@@Z 0000000180037104     libucrt:onexit.obj
 0004:00001110       $pdata$??R<lambda_4e60a939b0d047cfe11ddc22648dfba9>@@QEBAHXZ 0000000180037110     libucrt:onexit.obj
 0004:0000111c       $pdata$_execute_onexit_table 000000018003711c     libucrt:onexit.obj
 0004:00001128       $pdata$_register_onexit_function 0000000180037128     libucrt:onexit.obj
 0004:00001134       $pdata$initialize_c        0000000180037134     libucrt:initialization.obj
 0004:00001140       $pdata$uninitialize_environment 0000000180037140     libucrt:initialization.obj
 0004:0000114c       $pdata$initialize_pointers 000000018003714c     libucrt:initialization.obj
 0004:00001158       $pdata$uninitialize_allocated_memory 0000000180037158     libucrt:initialization.obj
 0004:00001164       $pdata$__acrt_thread_attach 0000000180037164     libucrt:initialization.obj
 0004:00001170       $pdata$__acrt_thread_detach 0000000180037170     libucrt:initialization.obj
 0004:0000117c       $pdata$__acrt_uninitialize_critical 000000018003717c     libucrt:initialization.obj
 0004:00001188       $pdata$_initterm           0000000180037188     libucrt:initterm.obj
 0004:00001194       $pdata$_initterm_e         0000000180037194     libucrt:initterm.obj
 0004:000011a0       $pdata$terminate           00000001800371a0     libucrt:terminate.obj
 0004:000011ac       $pdata$strcpy_s            00000001800371ac     libucrt:strcpy_s.obj
 0004:000011b8       $pdata$_free_base          00000001800371b8     libucrt:free_base.obj
 0004:000011c4       $pdata$_malloc_base        00000001800371c4     libucrt:malloc_base.obj
 0004:000011d0       $pdata$abort               00000001800371d0     libucrt:abort.obj
 0004:000011dc       $pdata$_calloc_base        00000001800371dc     libucrt:calloc_base.obj
 0004:000011e8       $pdata$??$?RV<lambda_7b91131dde12e1c3dfc74ff76b3f2eac>@@AEAV<lambda_dd75445284c072d0bd3768540cc698fa>@@V<lambda_16bc4ecb55b4718497c16bceaea2ceaf>@@@?$__crt_seh_guarded_call@H@@QEAAH$$QEAV<lambda_7b91131dde12e1c3dfc74ff76b3f2eac>@@AEAV<lambda_dd75445284c072d0bd3768540cc698fa>@@$$QEAV<lambda_16bc4ecb55b4718497c16bceaea2ceaf>@@@Z 00000001800371e8     libucrt:output.obj
 0004:000011f4       $pdata$??$ensure_buffer_is_big_enough@D@formatting_buffer@__crt_stdio_output@@QEAA_N_K@Z 00000001800371f4     libucrt:output.obj
 0004:00001200       $pdata$??$type_case_integer_parse_into_buffer@I@?$output_processor@_WV?$string_output_adapter@_W@__crt_stdio_output@@V?$standard_base@_WV?$string_output_adapter@_W@__crt_stdio_output@@@2@@__crt_stdio_output@@AEAAXII_N@Z 0000000180037200     libucrt:output.obj
 0004:00001200       $pdata$??$type_case_integer_parse_into_buffer@I@?$output_processor@_WV?$stream_output_adapter@_W@__crt_stdio_output@@V?$standard_base@_WV?$stream_output_adapter@_W@__crt_stdio_output@@@2@@__crt_stdio_output@@AEAAXII_N@Z 0000000180037200     libucrt:output.obj
 0004:0000120c       $pdata$??$type_case_integer_parse_into_buffer@_K@?$output_processor@_WV?$string_output_adapter@_W@__crt_stdio_output@@V?$standard_base@_WV?$string_output_adapter@_W@__crt_stdio_output@@@2@@__crt_stdio_output@@AEAAX_KI_N@Z 000000018003720c     libucrt:output.obj
 0004:0000120c       $pdata$??$type_case_integer_parse_into_buffer@_K@?$output_processor@_WV?$stream_output_adapter@_W@__crt_stdio_output@@V?$standard_base@_WV?$stream_output_adapter@_W@__crt_stdio_output@@@2@@__crt_stdio_output@@AEAAX_KI_N@Z 000000018003720c     libucrt:output.obj
 0004:00001218       $pdata$??$write_multiple_characters@V?$stream_output_adapter@_W@__crt_stdio_output@@D@__crt_stdio_output@@YAXAEBV?$stream_output_adapter@_W@0@DHQEAH@Z 0000000180037218     libucrt:output.obj
 0004:00001224       $pdata$??$write_multiple_characters@V?$string_output_adapter@_W@__crt_stdio_output@@D@__crt_stdio_output@@YAXAEBV?$string_output_adapter@_W@0@DHQEAH@Z 0000000180037224     libucrt:output.obj
 0004:00001230       $pdata$??0?$output_processor@_WV?$string_output_adapter@_W@__crt_stdio_output@@V?$standard_base@_WV?$string_output_adapter@_W@__crt_stdio_output@@@2@@__crt_stdio_output@@QEAA@AEBV?$string_output_adapter@_W@1@_KQEB_WQEAU__crt_locale_pointers@@QEAD@Z 0000000180037230     libucrt:output.obj
 0004:00001230       $pdata$??0?$output_processor@_WV?$stream_output_adapter@_W@__crt_stdio_output@@V?$standard_base@_WV?$stream_output_adapter@_W@__crt_stdio_output@@@2@@__crt_stdio_output@@QEAA@AEBV?$stream_output_adapter@_W@1@_KQEB_WQEAU__crt_locale_pointers@@QEAD@Z 0000000180037230     libucrt:output.obj
 0004:0000123c       $pdata$??R<lambda_dd75445284c072d0bd3768540cc698fa>@@QEBAHXZ 000000018003723c     libucrt:output.obj
 0004:00001248       $pdata$?force_decimal_point@__crt_stdio_output@@YAXPEADQEAU__crt_locale_pointers@@@Z 0000000180037248     libucrt:output.obj
 0004:00001254       $pdata$?parse_int_from_format_string@?$output_processor@_WV?$stream_output_adapter@_W@__crt_stdio_output@@V?$standard_base@_WV?$stream_output_adapter@_W@__crt_stdio_output@@@2@@__crt_stdio_output@@AEAA_NQEAH@Z 0000000180037254     libucrt:output.obj
 0004:00001254       $pdata$?parse_int_from_format_string@?$output_processor@_WV?$string_output_adapter@_W@__crt_stdio_output@@V?$standard_base@_WV?$string_output_adapter@_W@__crt_stdio_output@@@2@@__crt_stdio_output@@AEAA_NQEAH@Z 0000000180037254     libucrt:output.obj
 0004:00001260       $pdata$?process@?$output_processor@_WV?$stream_output_adapter@_W@__crt_stdio_output@@V?$standard_base@_WV?$stream_output_adapter@_W@__crt_stdio_output@@@2@@__crt_stdio_output@@QEAAHXZ 0000000180037260     libucrt:output.obj
 0004:0000126c       $pdata$?process@?$output_processor@_WV?$string_output_adapter@_W@__crt_stdio_output@@V?$standard_base@_WV?$string_output_adapter@_W@__crt_stdio_output@@@2@@__crt_stdio_output@@QEAAHXZ 000000018003726c     libucrt:output.obj
 0004:00001278       $pdata$?state_case_size@?$output_processor@_WV?$stream_output_adapter@_W@__crt_stdio_output@@V?$standard_base@_WV?$stream_output_adapter@_W@__crt_stdio_output@@@2@@__crt_stdio_output@@AEAA_NXZ 0000000180037278     libucrt:output.obj
 0004:00001284       $pdata$?state_case_size@?$output_processor@_WV?$string_output_adapter@_W@__crt_stdio_output@@V?$standard_base@_WV?$string_output_adapter@_W@__crt_stdio_output@@@2@@__crt_stdio_output@@AEAA_NXZ 0000000180037284     libucrt:output.obj
 0004:00001290       $pdata$?state_case_type@?$output_processor@_WV?$stream_output_adapter@_W@__crt_stdio_output@@V?$standard_base@_WV?$stream_output_adapter@_W@__crt_stdio_output@@@2@@__crt_stdio_output@@AEAA_NXZ 0000000180037290     libucrt:output.obj
 0004:0000129c       $pdata$?state_case_type@?$output_processor@_WV?$string_output_adapter@_W@__crt_stdio_output@@V?$standard_base@_WV?$string_output_adapter@_W@__crt_stdio_output@@@2@@__crt_stdio_output@@AEAA_NXZ 000000018003729c     libucrt:output.obj
 0004:000012a8       $pdata$?type_case_Z@?$output_processor@_WV?$stream_output_adapter@_W@__crt_stdio_output@@V?$standard_base@_WV?$stream_output_adapter@_W@__crt_stdio_output@@@2@@__crt_stdio_output@@AEAA_NXZ 00000001800372a8     libucrt:output.obj
 0004:000012a8       $pdata$?type_case_Z@?$output_processor@_WV?$string_output_adapter@_W@__crt_stdio_output@@V?$standard_base@_WV?$string_output_adapter@_W@__crt_stdio_output@@@2@@__crt_stdio_output@@AEAA_NXZ 00000001800372a8     libucrt:output.obj
 0004:000012b4       $pdata$?type_case_a@?$output_processor@_WV?$stream_output_adapter@_W@__crt_stdio_output@@V?$standard_base@_WV?$stream_output_adapter@_W@__crt_stdio_output@@@2@@__crt_stdio_output@@AEAA_NXZ 00000001800372b4     libucrt:output.obj
 0004:000012b4       $pdata$?type_case_a@?$output_processor@_WV?$string_output_adapter@_W@__crt_stdio_output@@V?$standard_base@_WV?$string_output_adapter@_W@__crt_stdio_output@@@2@@__crt_stdio_output@@AEAA_NXZ 00000001800372b4     libucrt:output.obj
 0004:000012c0       $pdata$?type_case_c_tchar@?$output_processor@_WV?$stream_output_adapter@_W@__crt_stdio_output@@V?$standard_base@_WV?$stream_output_adapter@_W@__crt_stdio_output@@@2@@__crt_stdio_output@@AEAA_N_W@Z 00000001800372c0     libucrt:output.obj
 0004:000012c0       $pdata$?type_case_c_tchar@?$output_processor@_WV?$string_output_adapter@_W@__crt_stdio_output@@V?$standard_base@_WV?$string_output_adapter@_W@__crt_stdio_output@@@2@@__crt_stdio_output@@AEAA_N_W@Z 00000001800372c0     libucrt:output.obj
 0004:000012cc       $pdata$?type_case_integer@?$output_processor@_WV?$stream_output_adapter@_W@__crt_stdio_output@@V?$standard_base@_WV?$stream_output_adapter@_W@__crt_stdio_output@@@2@@__crt_stdio_output@@AEAA_NI_N@Z 00000001800372cc     libucrt:output.obj
 0004:000012cc       $pdata$?type_case_integer@?$output_processor@_WV?$string_output_adapter@_W@__crt_stdio_output@@V?$standard_base@_WV?$string_output_adapter@_W@__crt_stdio_output@@@2@@__crt_stdio_output@@AEAA_NI_N@Z 00000001800372cc     libucrt:output.obj
 0004:000012d8       $pdata$?type_case_n@?$output_processor@_WV?$stream_output_adapter@_W@__crt_stdio_output@@V?$standard_base@_WV?$stream_output_adapter@_W@__crt_stdio_output@@@2@@__crt_stdio_output@@AEAA_NXZ 00000001800372d8     libucrt:output.obj
 0004:000012d8       $pdata$?type_case_n@?$output_processor@_WV?$string_output_adapter@_W@__crt_stdio_output@@V?$standard_base@_WV?$string_output_adapter@_W@__crt_stdio_output@@@2@@__crt_stdio_output@@AEAA_NXZ 00000001800372d8     libucrt:output.obj
 0004:000012e4       $pdata$?type_case_s@?$output_processor@_WV?$string_output_adapter@_W@__crt_stdio_output@@V?$standard_base@_WV?$string_output_adapter@_W@__crt_stdio_output@@@2@@__crt_stdio_output@@AEAA_NXZ 00000001800372e4     libucrt:output.obj
 0004:000012e4       $pdata$?type_case_s@?$output_processor@_WV?$stream_output_adapter@_W@__crt_stdio_output@@V?$standard_base@_WV?$stream_output_adapter@_W@__crt_stdio_output@@@2@@__crt_stdio_output@@AEAA_NXZ 00000001800372e4     libucrt:output.obj
 0004:000012f0       $pdata$?write_stored_string_tchar@?$output_processor@_WV?$stream_output_adapter@_W@__crt_stdio_output@@V?$standard_base@_WV?$stream_output_adapter@_W@__crt_stdio_output@@@2@@__crt_stdio_output@@AEAA_N_W@Z 00000001800372f0     libucrt:output.obj
 0004:000012fc       $pdata$?write_stored_string_tchar@?$output_processor@_WV?$string_output_adapter@_W@__crt_stdio_output@@V?$standard_base@_WV?$string_output_adapter@_W@__crt_stdio_output@@@2@@__crt_stdio_output@@AEAA_N_W@Z 00000001800372fc     libucrt:output.obj
 0004:00001308       $pdata$?write_string@?$stream_output_adapter@_W@__crt_stdio_output@@QEBAXQEB_WHQEAH1@Z 0000000180037308     libucrt:output.obj
 0004:00001314       $pdata$?write_string@?$string_output_adapter@_W@__crt_stdio_output@@QEBAXQEB_WHQEAH1@Z 0000000180037314     libucrt:output.obj
 0004:00001320       $pdata$__stdio_common_vfwprintf 0000000180037320     libucrt:output.obj
 0004:0000132c       $pdata$__stdio_common_vswprintf 000000018003732c     libucrt:output.obj
 0004:00001338       $pdata$??$parse_integer@KV?$c_string_character_source@D@__crt_strtox@@@__crt_strtox@@YAKQEAU__crt_locale_pointers@@V?$c_string_character_source@D@0@H_N@Z 0000000180037338     libucrt:atox.obj
 0004:00001344       $pdata$??$parse_integer@KV?$c_string_character_source@_W@__crt_strtox@@@__crt_strtox@@YAKQEAU__crt_locale_pointers@@V?$c_string_character_source@_W@0@H_N@Z 0000000180037344     libucrt:atox.obj
 0004:00001350       $pdata$atol                0000000180037350     libucrt:atox.obj
 0004:0000135c       $pdata$__acrt_call_reportfault 000000018003735c     libucrt:invalid_parameter.obj
 0004:00001368       $pdata$_invalid_parameter  0000000180037368     libucrt:invalid_parameter.obj
 0004:00001374       $pdata$_invalid_parameter_noinfo 0000000180037374     libucrt:invalid_parameter.obj
 0004:00001380       $pdata$_invoke_watson      0000000180037380     libucrt:invalid_parameter.obj
 0004:0000138c       $pdata$__acrt_errno_map_os_error 000000018003738c     libucrt:errno.obj
 0004:00001398       $pdata$__doserrno          0000000180037398     libucrt:errno.obj
 0004:000013a4       $pdata$_errno              00000001800373a4     libucrt:errno.obj
 0004:000013b0       $pdata$_get_daylight       00000001800373b0     libucrt:timeset.obj
 0004:000013bc       $pdata$_get_dstbias        00000001800373bc     libucrt:timeset.obj
 0004:000013c8       $pdata$_get_timezone       00000001800373c8     libucrt:timeset.obj
 0004:000013d4       $pdata$??$common_gmtime_s@_J@@YAHQEAUtm@@QEB_J@Z 00000001800373d4     libucrt:gmtime.obj
 0004:000013e0       $pdata$?compute_year@@YAHAEA_JAEA_N@Z 00000001800373e0     libucrt:gmtime.obj
 0004:000013ec       $pdata$??$common_localtime_s@_J@@YAHQEAUtm@@QEB_J@Z 00000001800373ec     libucrt:localtime.obj
 0004:000013f8       $pdata$?_isindst_nolock@@YAHQEAUtm@@@Z 00000001800373f8     libucrt:tzset.obj
 0004:00001404       $pdata$?cvtdate@@YAXW4transition_type@?A0x1b14ceb2@@W4date_type@2@HHHHHHHHH@Z 0000000180037404     libucrt:tzset.obj
 0004:00001410       $pdata$?tzset_from_environment_nolock@@YAXPEAD@Z 0000000180037410     libucrt:tzset.obj
 0004:0000141c       $pdata$?tzset_from_system_nolock@@YAXXZ 000000018003741c     libucrt:tzset.obj
 0004:00001428       $pdata$?tzset_nolock@@YAXXZ 0000000180037428     libucrt:tzset.obj
 0004:00001434       $pdata$__tzset             0000000180037434     libucrt:tzset.obj
 0004:00001440       $pdata$_isindst            0000000180037440     libucrt:tzset.obj
 0004:0000144c       $pdata$??$common_xtox@K_W@@YAHKQEA_W_KI_N@Z 000000018003744c     libucrt:xtoa.obj
 0004:00001458       $pdata$??$common_xtox_s@K_W@@YAHKQEA_W_KI_N@Z 0000000180037458     libucrt:xtoa.obj
 0004:00001464       $pdata$_itow_s             0000000180037464     libucrt:xtoa.obj
 0004:00001470       $pdata$_set_error_mode     0000000180037470     libucrt:set_error_mode.obj
 0004:0000147c       $pdata$wcscat_s            000000018003747c     libucrt:wcscat_s.obj
 0004:00001488       $pdata$wcscpy_s            0000000180037488     libucrt:wcscpy_s.obj
 0004:00001494       $pdata$wcsncat_s           0000000180037494     libucrt:wcsncat_s.obj
 0004:000014a0       $pdata$??$message_box_wait_thread@_W@@YAKQEAX@Z 00000001800374a0     libucrt:crtmbox.obj
 0004:000014ac       $pdata$__acrt_show_wide_message_box 00000001800374ac     libucrt:crtmbox.obj
 0004:000014b8       $pdata$__acrt_initialize_stdio 00000001800374b8     libucrt:_file.obj
 0004:000014c4       $pdata$__acrt_uninitialize_stdio 00000001800374c4     libucrt:_file.obj
 0004:000014d0       $pdata$__acrt_stdio_flush_nolock 00000001800374d0     libucrt:fflush.obj
 0004:000014dc       $pdata$_fflush_nolock      00000001800374dc     libucrt:fflush.obj
 0004:000014e8       $pdata$common_flush_all    00000001800374e8     libucrt:fflush.obj
 0004:000014f4       $pdata$fflush              00000001800374f4     libucrt:fflush.obj
 0004:00001500       $pdata$??$?RV<lambda_7a5ef57ff966f610505f1d28a3d40618>@@AEAV<lambda_b721fa326cdb32351d23dfa67958c160>@@V<lambda_5e0fb27672408a07956fe59e48ccb2aa>@@@?$__crt_seh_guarded_call@H@@QEAAH$$QEAV<lambda_7a5ef57ff966f610505f1d28a3d40618>@@AEAV<lambda_b721fa326cdb32351d23dfa67958c160>@@$$QEAV<lambda_5e0fb27672408a07956fe59e48ccb2aa>@@@Z 0000000180037500     libucrt:setvbuf.obj
 0004:0000150c       $pdata$??R<lambda_b721fa326cdb32351d23dfa67958c160>@@QEBAHXZ 000000018003750c     libucrt:setvbuf.obj
 0004:00001518       $pdata$setvbuf             0000000180037518     libucrt:setvbuf.obj
 0004:00001524       $pdata$??$?RV<lambda_c36588078e9f5dfd39652860aa6b3aaf>@@AEAV<lambda_ec61778202f4f5fc7e7711acc23c3bca>@@V<lambda_dc9d2797ccde5d239b4a0efae8ebd7db>@@@?$__crt_seh_guarded_call@P6AXH@Z@@QEAAP6AXH@Z$$QEAV<lambda_c36588078e9f5dfd39652860aa6b3aaf>@@AEAV<lambda_ec61778202f4f5fc7e7711acc23c3bca>@@$$QEAV<lambda_dc9d2797ccde5d239b4a0efae8ebd7db>@@@Z 0000000180037524     libucrt:signal.obj
 0004:00001530       $pdata$__acrt_get_sigabrt_handler 0000000180037530     libucrt:signal.obj
 0004:0000153c       $pdata$raise               000000018003753c     libucrt:signal.obj
 0004:00001548       $pdata$__pctype_func       0000000180037548     libucrt:ctype.obj
 0004:00001554       $pdata$_isleadbyte_l       0000000180037554     libucrt:_wctype.obj
 0004:00001560       $pdata$_isctype_l          0000000180037560     libucrt:isctype.obj
 0004:0000156c       $pdata$?__acrt_LCMapStringA_stat@@YAHPEAU__crt_locale_pointers@@PEB_WKPEBDHPEADHHH@Z 000000018003756c     libucrt:lcmapstringa.obj
 0004:00001578       $pdata$__acrt_LCMapStringA 0000000180037578     libucrt:lcmapstringa.obj
 0004:00001584       $pdata$??$?RV<lambda_46352004c1216016012b18bd6f87e700>@@AEAV<lambda_3bd07e1a1191394380780325891bf33f>@@V<lambda_334532d3f185bcaa59b5be82d7d22bff>@@@?$__crt_seh_guarded_call@X@@QEAAX$$QEAV<lambda_46352004c1216016012b18bd6f87e700>@@AEAV<lambda_3bd07e1a1191394380780325891bf33f>@@$$QEAV<lambda_334532d3f185bcaa59b5be82d7d22bff>@@@Z 0000000180037584     libucrt:per_thread_data.obj
 0004:00001590       $pdata$??$?RV<lambda_5e887d1dcbef67a5eb4283622ba103bf>@@AEAV<lambda_4466841279450cc726390878d4a41900>@@V<lambda_341c25c0346d94847f1f3c463c57e077>@@@?$__crt_seh_guarded_call@X@@QEAAX$$QEAV<lambda_5e887d1dcbef67a5eb4283622ba103bf>@@AEAV<lambda_4466841279450cc726390878d4a41900>@@$$QEAV<lambda_341c25c0346d94847f1f3c463c57e077>@@@Z 0000000180037590     libucrt:per_thread_data.obj
 0004:0000159c       $pdata$??$?RV<lambda_72d1df2b273a38828b1ce30cbf4cdab5>@@AEAV<lambda_876a65b173b8412d3a47c70a915b0cf4>@@V<lambda_41932305e351933ebe8f8be3ed8bb5dc>@@@?$__crt_seh_guarded_call@X@@QEAAX$$QEAV<lambda_72d1df2b273a38828b1ce30cbf4cdab5>@@AEAV<lambda_876a65b173b8412d3a47c70a915b0cf4>@@$$QEAV<lambda_41932305e351933ebe8f8be3ed8bb5dc>@@@Z 000000018003759c     libucrt:per_thread_data.obj
 0004:000015a8       $pdata$??$?RV<lambda_fb3a7dec4e47f37f22dae91bb15c9095>@@AEAV<lambda_698284760c8add0bfb0756c19673e34b>@@V<lambda_dfb8eca1e75fef3034a8fb18dd509707>@@@?$__crt_seh_guarded_call@X@@QEAAX$$QEAV<lambda_fb3a7dec4e47f37f22dae91bb15c9095>@@AEAV<lambda_698284760c8add0bfb0756c19673e34b>@@$$QEAV<lambda_dfb8eca1e75fef3034a8fb18dd509707>@@@Z 00000001800375a8     libucrt:per_thread_data.obj
 0004:000015b4       $pdata$?construct_ptd_array@@YAXQEAU__acrt_ptd@@@Z 00000001800375b4     libucrt:per_thread_data.obj
 0004:000015c0       $pdata$?destroy_fls@@YAXPEAX@Z 00000001800375c0     libucrt:per_thread_data.obj
 0004:000015cc       $pdata$?destroy_ptd_array@@YAXQEAU__acrt_ptd@@@Z 00000001800375cc     libucrt:per_thread_data.obj
 0004:000015d8       $pdata$?replace_current_thread_locale_nolock@@YAXQEAU__acrt_ptd@@QEAU__crt_locale_data@@@Z 00000001800375d8     libucrt:per_thread_data.obj
 0004:000015e4       $pdata$__acrt_freeptd      00000001800375e4     libucrt:per_thread_data.obj
 0004:000015f0       $pdata$__acrt_getptd       00000001800375f0     libucrt:per_thread_data.obj
 0004:000015fc       $pdata$__acrt_getptd_noexit 00000001800375fc     libucrt:per_thread_data.obj
 0004:00001608       $pdata$__acrt_initialize_ptd 0000000180037608     libucrt:per_thread_data.obj
 0004:00001614       $pdata$__acrt_uninitialize_ptd 0000000180037614     libucrt:per_thread_data.obj
 0004:00001620       $pdata$__acrt_update_locale_info 0000000180037620     libucrt:locale_update.obj
 0004:0000162c       $pdata$__acrt_update_multibyte_info 000000018003762c     libucrt:locale_update.obj
 0004:00001638       $pdata$__acrt_uninitialize_locale 0000000180037638     libucrt:wsetlocale.obj
 0004:00001644       $pdata$__acrt_initialize_locks 0000000180037644     libucrt:locks.obj
 0004:00001650       $pdata$__acrt_uninitialize_locks 0000000180037650     libucrt:locks.obj
 0004:0000165c       $pdata$?try_get_function@@YAPEAXW4function_id@?A0x63058377@@QEBDQEBW4module_id@2@2@Z 000000018003765c     libucrt:winapi_thunks.obj
 0004:00001668       $pdata$__acrt_CompareStringEx 0000000180037668     libucrt:winapi_thunks.obj
 0004:00001674       $pdata$__acrt_FlsAlloc     0000000180037674     libucrt:winapi_thunks.obj
 0004:00001680       $pdata$__acrt_FlsFree      0000000180037680     libucrt:winapi_thunks.obj
 0004:0000168c       $pdata$__acrt_FlsGetValue  000000018003768c     libucrt:winapi_thunks.obj
 0004:00001698       $pdata$__acrt_FlsSetValue  0000000180037698     libucrt:winapi_thunks.obj
 0004:000016a4       $pdata$__acrt_InitializeCriticalSectionEx 00000001800376a4     libucrt:winapi_thunks.obj
 0004:000016b0       $pdata$__acrt_LCMapStringEx 00000001800376b0     libucrt:winapi_thunks.obj
 0004:000016bc       $pdata$__acrt_LocaleNameToLCID 00000001800376bc     libucrt:winapi_thunks.obj
 0004:000016c8       $pdata$__acrt_MessageBoxW  00000001800376c8     libucrt:winapi_thunks.obj
 0004:000016d4       $pdata$__acrt_can_show_message_box 00000001800376d4     libucrt:winapi_thunks.obj
 0004:000016e0       $pdata$__acrt_get_parent_window 00000001800376e0     libucrt:winapi_thunks.obj
 0004:000016ec       $pdata$__acrt_initialize_winapi_thunks 00000001800376ec     libucrt:winapi_thunks.obj
 0004:000016f8       $pdata$__acrt_is_interactive 00000001800376f8     libucrt:winapi_thunks.obj
 0004:00001704       $pdata$__acrt_is_packaged_app 0000000180037704     libucrt:winapi_thunks.obj
 0004:00001710       $pdata$__acrt_uninitialize_winapi_thunks 0000000180037710     libucrt:winapi_thunks.obj
 0004:0000171c       $pdata$??$common_expand_argv_wildcards@D@@YAHQEAPEADQEAPEAPEAD@Z 000000018003771c     libucrt:argv_wildcards.obj
 0004:00001728       $pdata$??$copy_and_add_argument_to_buffer@D@@YAHQEBD0_KAEAV?$argument_list@D@?A0xca0879c4@@@Z 0000000180037728     libucrt:argv_wildcards.obj
 0004:00001734       $pdata$??$expand_argument_wildcards@D@@YAHQEAD0AEAV?$argument_list@D@?A0xca0879c4@@@Z 0000000180037734     libucrt:argv_wildcards.obj
 0004:00001740       $pdata$?expand_if_necessary@?$argument_list@D@?A0xca0879c4@@AEAAHXZ 0000000180037740     libucrt:argv_wildcards.obj
 0004:0000174c       $pdata$??$?RV<lambda_99476a1ad63dd22509b5d3e65b0ffc95>@@AEAV<lambda_ad1ced32f4ac17aa236e5ef05d6b3b7c>@@V<lambda_f7424dd8d45958661754dc4f2697e9c3>@@@?$__crt_seh_guarded_call@X@@QEAAX$$QEAV<lambda_99476a1ad63dd22509b5d3e65b0ffc95>@@AEAV<lambda_ad1ced32f4ac17aa236e5ef05d6b3b7c>@@$$QEAV<lambda_f7424dd8d45958661754dc4f2697e9c3>@@@Z 000000018003774c     libucrt:mbctype.obj
 0004:00001758       $pdata$??R<lambda_ad1ced32f4ac17aa236e5ef05d6b3b7c>@@QEBAXXZ 0000000180037758     libucrt:mbctype.obj
 0004:00001764       $pdata$?getSystemCP@@YAHH@Z 0000000180037764     libucrt:mbctype.obj
 0004:00001770       $pdata$?setSBCS@@YAXPEAU__crt_multibyte_data@@@Z 0000000180037770     libucrt:mbctype.obj
 0004:0000177c       $pdata$?setSBUpLow@@YAXPEAU__crt_multibyte_data@@@Z 000000018003777c     libucrt:mbctype.obj
 0004:00001788       $pdata$?setmbcp_internal@@YAHH_N@Z 0000000180037788     libucrt:mbctype.obj
 0004:00001794       $pdata$__acrt_initialize_multibyte 0000000180037794     libucrt:mbctype.obj
 0004:000017a0       $pdata$__acrt_update_thread_multibyte_data 00000001800377a0     libucrt:mbctype.obj
 0004:000017ac       $pdata$_setmbcp_nolock     00000001800377ac     libucrt:mbctype.obj
 0004:000017b8       $pdata$?x_ismbbtype_l@@YAHPEAU__crt_locale_pointers@@IHH@Z 00000001800377b8     libucrt:ismbbyte.obj
 0004:000017c4       $pdata$__acrt_initialize_command_line 00000001800377c4     libucrt:argv_data.obj
 0004:000017d0       $pdata$__dcrt_get_narrow_environment_from_os 00000001800377d0     libucrt:get_environment_from_os.obj
 0004:000017dc       $pdata$??$common_set_variable_in_environment_nolock@D@@YAHQEADH@Z 00000001800377dc     libucrt:setenv.obj
 0004:000017e8       $pdata$??$copy_environment@D@@YAPEAPEADQEAPEAD@Z 00000001800377e8     libucrt:setenv.obj
 0004:000017f4       $pdata$_recalloc_base      00000001800377f4     libucrt:recalloc.obj
 0004:00001800       $pdata$__acrt_initialize_heap 0000000180037800     libucrt:heap_handle.obj
 0004:0000180c       $pdata$?initialize_inherited_file_handles_nolock@@YAXXZ 000000018003780c     libucrt:ioinit.obj
 0004:00001818       $pdata$?initialize_stdio_handles_nolock@@YAXXZ 0000000180037818     libucrt:ioinit.obj
 0004:00001824       $pdata$__acrt_initialize_lowio 0000000180037824     libucrt:ioinit.obj
 0004:00001830       $pdata$__acrt_uninitialize_lowio 0000000180037830     libucrt:ioinit.obj
 0004:0000183c       $pdata$__acrt_execute_initializers 000000018003783c     libucrt:shared_initialization.obj
 0004:00001848       $pdata$__acrt_execute_uninitializers 0000000180037848     libucrt:shared_initialization.obj
 0004:00001854       $pdata$__acrt_invoke_user_matherr 0000000180037854     libucrt:matherr.obj
 0004:00001860       $pdata$__acrt_stdio_begin_temporary_buffering_nolock 0000000180037860     libucrt:_sftbuf.obj
 0004:0000186c       $pdata$__acrt_stdio_end_temporary_buffering_nolock 000000018003786c     libucrt:_sftbuf.obj
 0004:00001878       $pdata$wcstol              0000000180037878     libucrt:strtox.obj
 0004:00001884       $pdata$_mbtowc_l           0000000180037884     libucrt:mbtowc.obj
 0004:00001890       $pdata$_wctomb_s_l         0000000180037890     libucrt:wctomb.obj
 0004:0000189c       $pdata$wctomb_s            000000018003789c     libucrt:wctomb.obj
 0004:000018a8       $pdata$wcsnlen             00000001800378a8     libucrt:strnlen.obj
 0004:000018b4       $pdata$?fp_format_a@@YAHQEBNPEAD_KQEAD2H_NIQEAU__crt_locale_pointers@@@Z 00000001800378b4     libucrt:cvt.obj
 0004:000018c0       $pdata$?fp_format_e@@YAHQEBNQEAD_K12H_NIQEAU__crt_locale_pointers@@@Z 00000001800378c0     libucrt:cvt.obj
 0004:000018cc       $pdata$?fp_format_e_internal@@YAHQEAD_KH_NIQEAU_strflt@@2QEAU__crt_locale_pointers@@@Z 00000001800378cc     libucrt:cvt.obj
 0004:000018d8       $pdata$?fp_format_f_internal@@YAHQEAD_KHQEAU_strflt@@_NQEAU__crt_locale_pointers@@@Z 00000001800378d8     libucrt:cvt.obj
 0004:000018e4       $pdata$?fp_format_g@@YAHQEBNQEAD_K12H_NIQEAU__crt_locale_pointers@@@Z 00000001800378e4     libucrt:cvt.obj
 0004:000018f0       $pdata$?fp_format_nan_or_infinity@@YAHW4__acrt_fp_class@@_NPEAD_K1@Z 00000001800378f0     libucrt:cvt.obj
 0004:000018fc       $pdata$__acrt_fp_format    00000001800378fc     libucrt:cvt.obj
 0004:00001908       $pdata$_fputwc_nolock      0000000180037908     libucrt:fputwc.obj
 0004:00001914       $pdata$_fileno             0000000180037914     libucrt:fileno.obj
 0004:00001920       $pdata$iswctype            0000000180037920     libucrt:iswctype.obj
 0004:0000192c       $pdata$??$common_getenv_nolock@D@@YAPEADQEBD@Z 000000018003792c     libucrt:getenv.obj
 0004:00001938       $pdata$??$common_getenv_s@D@@YAHQEA_KQEAD_KQEBD@Z 0000000180037938     libucrt:getenv.obj
 0004:00001944       $pdata$strncpy_s           0000000180037944     libucrt:strncpy_s.obj
 0004:00001950       $pdata$___lc_codepage_func 0000000180037950     libucrt:initctype.obj
 0004:0000195c       $pdata$_fcloseall          000000018003795c     libucrt:closeall.obj
 0004:00001968       $pdata$__acrt_stdio_free_buffer_nolock 0000000180037968     libucrt:_freebuf.obj
 0004:00001974       $pdata$??$?RV<lambda_b521505b218e5242e90febf6bfebc422>@@AEAV<lambda_6978c1fb23f02e42e1d9e99668cc68aa>@@V<lambda_314360699dd331753a4119843814e9a7>@@@?$__crt_seh_guarded_call@H@@QEAAH$$QEAV<lambda_b521505b218e5242e90febf6bfebc422>@@AEAV<lambda_6978c1fb23f02e42e1d9e99668cc68aa>@@$$QEAV<lambda_314360699dd331753a4119843814e9a7>@@@Z 0000000180037974     libucrt:commit.obj
 0004:00001980       $pdata$_commit             0000000180037980     libucrt:commit.obj
 0004:0000198c       $pdata$?write_double_translated_ansi_nolock@@YA?AUwrite_result@?A0x9c548279@@HQEBDI@Z 000000018003798c     libucrt:write.obj
 0004:00001998       $pdata$?write_text_ansi_nolock@@YA?AUwrite_result@?A0x9c548279@@HQEBDI@Z 0000000180037998     libucrt:write.obj
 0004:000019a4       $pdata$?write_text_utf16le_nolock@@YA?AUwrite_result@?A0x9c548279@@HQEBDI@Z 00000001800379a4     libucrt:write.obj
 0004:000019b0       $pdata$?write_text_utf8_nolock@@YA?AUwrite_result@?A0x9c548279@@HQEBDI@Z 00000001800379b0     libucrt:write.obj
 0004:000019bc       $pdata$_write              00000001800379bc     libucrt:write.obj
 0004:000019c8       $pdata$_write_nolock       00000001800379c8     libucrt:write.obj
 0004:000019d4       $pdata$__acrt_GetStringTypeA 00000001800379d4     libucrt:getstringtypea.obj
 0004:000019e0       $pdata$__acrt_free_locale  00000001800379e0     libucrt:locale_refcounting.obj
 0004:000019ec       $pdata$__acrt_locale_free_lc_time_if_unreferenced 00000001800379ec     libucrt:locale_refcounting.obj
 0004:000019f8       $pdata$__acrt_release_locale_ref 00000001800379f8     libucrt:locale_refcounting.obj
 0004:00001a04       $pdata$__acrt_update_thread_locale_data 0000000180037a04     libucrt:locale_refcounting.obj
 0004:00001a10       $pdata$_updatetlocinfoEx_nolock 0000000180037a10     libucrt:locale_refcounting.obj
 0004:00001a1c       $pdata$__acrt_locale_free_monetary 0000000180037a1c     libucrt:initmon.obj
 0004:00001a28       $pdata$__acrt_locale_free_numeric 0000000180037a28     libucrt:initnum.obj
 0004:00001a34       $pdata$?free_crt_array_internal@@YAXQEAPEBX_K@Z 0000000180037a34     libucrt:inittime.obj
 0004:00001a40       $pdata$__acrt_locale_free_time 0000000180037a40     libucrt:inittime.obj
 0004:00001a4c       $pdata$?GetTableIndexFromLocaleName@@YAHPEB_W@Z 0000000180037a4c     libucrt:lcidtoname_downlevel.obj
 0004:00001a58       $pdata$__acrt_DownlevelLocaleNameToLCID 0000000180037a58     libucrt:lcidtoname_downlevel.obj
 0004:00001a64       $pdata$?shortsort@@YAXPEAD0_KP6AHPEBX2@Z@Z 0000000180037a64     libucrt:qsort.obj
 0004:00001a70       $pdata$2$?shortsort@@YAXPEAD0_KP6AHPEBX2@Z@Z 0000000180037a70     libucrt:qsort.obj
 0004:00001a7c       $pdata$3$?shortsort@@YAXPEAD0_KP6AHPEBX2@Z@Z 0000000180037a7c     libucrt:qsort.obj
 0004:00001a88       $pdata$qsort               0000000180037a88     libucrt:qsort.obj
 0004:00001a94       $pdata$4$qsort             0000000180037a94     libucrt:qsort.obj
 0004:00001aa0       $pdata$5$qsort             0000000180037aa0     libucrt:qsort.obj
 0004:00001aac       $pdata$strpbrk             0000000180037aac     libucrt:strpbrk.obj
 0004:00001ab8       $pdata$_mbsdec_l           0000000180037ab8     libucrt:mbsdec.obj
 0004:00001ac4       $pdata$?initialize_multibyte@@YAHXZ 0000000180037ac4     libucrt:multibyte_initializer.obj
 0004:00001ad0       $pdata$_strnicoll_l        0000000180037ad0     libucrt:strnicol.obj
 0004:00001adc       $pdata$_msize              0000000180037adc     libucrt:msize.obj
 0004:00001ae8       $pdata$_realloc_base       0000000180037ae8     libucrt:realloc_base.obj
 0004:00001af4       $pdata$__acrt_lowio_create_handle_array 0000000180037af4     libucrt:osfinfo.obj
 0004:00001b00       $pdata$__acrt_lowio_destroy_handle_array 0000000180037b00     libucrt:osfinfo.obj
 0004:00001b0c       $pdata$__acrt_lowio_ensure_fh_exists 0000000180037b0c     libucrt:osfinfo.obj
 0004:00001b18       $pdata$_free_osfhnd        0000000180037b18     libucrt:osfinfo.obj
 0004:00001b24       $pdata$_get_osfhandle      0000000180037b24     libucrt:osfinfo.obj
 0004:00001b30       $pdata$_isatty             0000000180037b30     libucrt:isatty.obj
 0004:00001b3c       $pdata$__acrt_fp_strflt_to_string 0000000180037b3c     libucrt:_fptostr.obj
 0004:00001b48       $pdata$?divide@__crt_strtox@@YA_KAEAUbig_integer@1@AEBU21@@Z 0000000180037b48     libucrt:cfout.obj
 0004:00001b54       $pdata$5$?divide@__crt_strtox@@YA_KAEAUbig_integer@1@AEBU21@@Z 0000000180037b54     libucrt:cfout.obj
 0004:00001b60       $pdata$6$?divide@__crt_strtox@@YA_KAEAUbig_integer@1@AEBU21@@Z 0000000180037b60     libucrt:cfout.obj
 0004:00001b6c       $pdata$__acrt_fltout       0000000180037b6c     libucrt:cfout.obj
 0004:00001b78       $pdata$memcpy_s            0000000180037b78     libucrt:cfout.obj
 0004:00001b84       $pdata$??$write_buffer_nolock@D@@YA_NDV__crt_stdio_stream@@@Z 0000000180037b84     libucrt:_flsbuf.obj
 0004:00001b90       $pdata$??$write_buffer_nolock@_W@@YA_N_WV__crt_stdio_stream@@@Z 0000000180037b90     libucrt:_flsbuf.obj
 0004:00001b9c       $pdata$__acrt_stdio_flush_and_write_narrow_nolock 0000000180037b9c     libucrt:_flsbuf.obj
 0004:00001ba8       $pdata$__acrt_stdio_flush_and_write_wide_nolock 0000000180037ba8     libucrt:_flsbuf.obj
 0004:00001bb4       $pdata$_fclose_nolock      0000000180037bb4     libucrt:fclose.obj
 0004:00001bc0       $pdata$fclose              0000000180037bc0     libucrt:fclose.obj
 0004:00001bcc       $pdata$??$common_lseek@_J@@YA_JH_JH@Z 0000000180037bcc     libucrt:lseek.obj
 0004:00001bd8       $pdata$??$common_lseek_nolock@_J@@YA_JH_JH@Z 0000000180037bd8     libucrt:lseek.obj
 0004:00001be4       $pdata$_putwch_nolock      0000000180037be4     libucrt:putwch.obj
 0004:00001bf0       $pdata$_strnicmp           0000000180037bf0     libucrt:strnicmp.obj
 0004:00001bfc       $pdata$_strnicmp_l         0000000180037bfc     libucrt:strnicmp.obj
 0004:00001c08       $pdata$?InternalCompareStringA@@YAHPEAU__crt_locale_pointers@@PEB_WKPEBDH2HH@Z 0000000180037c08     libucrt:comparestringa.obj
 0004:00001c14       $pdata$__acrt_CompareStringA 0000000180037c14     libucrt:comparestringa.obj
 0004:00001c20       $pdata$fegetenv            0000000180037c20     libucrt:fegetenv.obj
 0004:00001c2c       $pdata$fesetenv            0000000180037c2c     libucrt:fesetenv.obj
 0004:00001c38       $pdata$feholdexcept        0000000180037c38     libucrt:feholdexcept.obj
 0004:00001c50       $pdata$__acrt_stdio_allocate_buffer_nolock 0000000180037c50     libucrt:_getbuf.obj
 0004:00001c5c       $pdata$??$?RV<lambda_bfedae4ebbf01fab1bb6dcc6a9e276e0>@@AEAV<lambda_2fe9b910cf3cbf4a0ab98a02ba45b3ec>@@V<lambda_237c231691f317818eb88cc1d5d642d6>@@@?$__crt_seh_guarded_call@H@@QEAAH$$QEAV<lambda_bfedae4ebbf01fab1bb6dcc6a9e276e0>@@AEAV<lambda_2fe9b910cf3cbf4a0ab98a02ba45b3ec>@@$$QEAV<lambda_237c231691f317818eb88cc1d5d642d6>@@@Z 0000000180037c5c     libucrt:close.obj
 0004:00001c68       $pdata$_close              0000000180037c68     libucrt:close.obj
 0004:00001c74       $pdata$_close_nolock       0000000180037c74     libucrt:close.obj
 0004:00001c80       $pdata$__dcrt_lowio_initialize_console_output 0000000180037c80     libucrt:initcon.obj
 0004:00001c8c       $pdata$__dcrt_terminate_console_output 0000000180037c8c     libucrt:initcon.obj
 0004:00001c98       $pdata$_getfpcontrolword   0000000180037c98     libucrt:_fenvutils.obj
 0004:00001ca4       $pdata$_getfpstatusword    0000000180037ca4     libucrt:_fenvutils.obj
 0004:00001cb0       $pdata$_setfpstatusword    0000000180037cb0     libucrt:_fenvutils.obj
 0004:00001cbc       $pdata$_clearfp            0000000180037cbc     libucrt:ieee.obj
 0004:00001cc8       $pdata$common_control87    0000000180037cc8     libucrt:ieee.obj
 0004:00001cd4       $pdata$_call_matherr       0000000180037cd4     libucrt:libm_error.obj
 0004:00001ce0       $pdata$_exception_enabled  0000000180037ce0     libucrt:libm_error.obj
 0004:00001cec       $pdata$_handle_error       0000000180037cec     libucrt:libm_error.obj
 0004:00001cf8       $pdata$__acrt_initialize_fma3 0000000180037cf8     libucrt:fma3_available.obj
 0004:00001d04       $pdata$_log10_special      0000000180037d04     libucrt:log_special.obj
 0004:00001d10       $pdata$_log_special_common 0000000180037d10     libucrt:log_special.obj
 0004:00001d28       $pdata$_raise_exc          0000000180037d28     libucrt:fpexcept.obj
 0004:00001d34       $pdata$_raise_exc_ex       0000000180037d34     libucrt:fpexcept.obj
 0004:00001d40       $pdata$_set_errno_from_matherr 0000000180037d40     libucrt:fpexcept.obj
 0004:00001d4c       $pdata$_clrfp              0000000180037d4c     libucrt:fpctrl.obj
 0004:00001d58       $pdata$_ctrlfp             0000000180037d58     libucrt:fpctrl.obj
 0004:00001d64       $pdata$_set_statfp         0000000180037d64     libucrt:fpctrl.obj
 0004:00001d70       $pdata$_statfp             0000000180037d70     libucrt:fpctrl.obj
 0004:00001d7c       $pdata$?DloadAcquireSectionWriteAccess@@YAXXZ 0000000180037d7c     DelayImp:delayhlp.obj
 0004:00001d88       $pdata$?DloadGetSRWLockFunctionPointers@@YAEXZ 0000000180037d88     DelayImp:delayhlp.obj
 0004:00001d94       $pdata$?DloadMakePermanentImageCommit@@YAXPEAX_K@Z 0000000180037d94     DelayImp:delayhlp.obj
 0004:00001da0       $pdata$?DloadObtainSection@@YAPEAXPEAK0@Z 0000000180037da0     DelayImp:delayhlp.obj
 0004:00001dac       $pdata$?DloadProtectSection@@YAXKPEAK@Z 0000000180037dac     DelayImp:delayhlp.obj
 0004:00001db8       $pdata$?DloadReleaseSectionWriteAccess@@YAXXZ 0000000180037db8     DelayImp:delayhlp.obj
 0004:00001dc4       $pdata$__delayLoadHelper2  0000000180037dc4     DelayImp:delayhlp.obj
 0004:00001dd0       $pdata$_IsNonwritableInCurrentImage 0000000180037dd0     LIBCMT:pesect.obj
 0004:00001ddc       $pdata$__GSHandlerCheck    0000000180037ddc     LIBCMT:_gshandler_.obj
 0004:00001de8       $pdata$__GSHandlerCheckCommon 0000000180037de8     LIBCMT:_gshandler_.obj
 0004:00001e18       $pdata$strchr              0000000180037e18     libvcruntime:strchr.obj
 0004:00001e24       $pdata$strrchr             0000000180037e24     libvcruntime:strrchr.obj
 0004:00001e3c       $pdata$__scrt_is_nonwritable_in_current_image$filt$0 0000000180037e3c     LIBCMT:utility.obj
 0004:00001e48       $pdata$?fin$0@?0??dllmain_crt_process_attach@@YAHQEAUHINSTANCE__@@QEAX@Z@4HA 0000000180037e48     LIBCMT:dll_dllmain.obj
 0004:00001e54       $pdata$?fin$0@?0??dllmain_crt_process_detach@@YAH_N@Z@4HA 0000000180037e54     LIBCMT:dll_dllmain.obj
 0004:00001e60       $pdata$?filt$0@?0??dllmain_dispatch@@YAHQEAUHINSTANCE__@@KQEAX@Z@4HA 0000000180037e60     LIBCMT:dll_dllmain.obj
 0004:00001e6c       $pdata$_query_new_handler$fin$0 0000000180037e6c     libucrt:new_handler.obj
 0004:00001e78       $pdata$?filt$0@?0??common_exit@@YAXHW4_crt_exit_cleanup_mode@@W4_crt_exit_return_mode@@@Z@4HA 0000000180037e78     libucrt:exit.obj
 0004:00001e84       $pdata$?fin$1@?0??common_exit@@YAXHW4_crt_exit_cleanup_mode@@W4_crt_exit_return_mode@@@Z@4HA 0000000180037e84     libucrt:exit.obj
 0004:00001e90       $pdata$?fin$0@?0???$?RV<lambda_99476a1ad63dd22509b5d3e65b0ffc95>@@AEAV<lambda_ad1ced32f4ac17aa236e5ef05d6b3b7c>@@V<lambda_f7424dd8d45958661754dc4f2697e9c3>@@@?$__crt_seh_guarded_call@X@@QEAAX$$QEAV<lambda_99476a1ad63dd22509b5d3e65b0ffc95>@@AEAV<lambda_ad1ced32f4ac17aa236e5ef05d6b3b7c>@@$$QEAV<lambda_f7424dd8d45958661754dc4f2697e9c3>@@@Z@4HA 0000000180037e90     libucrt:mbctype.obj
 0004:00001e90       $pdata$?fin$0@?0???$?RV<lambda_fb3a7dec4e47f37f22dae91bb15c9095>@@AEAV<lambda_698284760c8add0bfb0756c19673e34b>@@V<lambda_dfb8eca1e75fef3034a8fb18dd509707>@@@?$__crt_seh_guarded_call@X@@QEAAX$$QEAV<lambda_fb3a7dec4e47f37f22dae91bb15c9095>@@AEAV<lambda_698284760c8add0bfb0756c19673e34b>@@$$QEAV<lambda_dfb8eca1e75fef3034a8fb18dd509707>@@@Z@4HA 0000000180037e90     libucrt:per_thread_data.obj
 0004:00001e90       $pdata$?fin$0@?0???$?RV<lambda_46352004c1216016012b18bd6f87e700>@@AEAV<lambda_3bd07e1a1191394380780325891bf33f>@@V<lambda_334532d3f185bcaa59b5be82d7d22bff>@@@?$__crt_seh_guarded_call@X@@QEAAX$$QEAV<lambda_46352004c1216016012b18bd6f87e700>@@AEAV<lambda_3bd07e1a1191394380780325891bf33f>@@$$QEAV<lambda_334532d3f185bcaa59b5be82d7d22bff>@@@Z@4HA 0000000180037e90     libucrt:per_thread_data.obj
 0004:00001e90       $pdata$?fin$0@?0???$?RV<lambda_72d1df2b273a38828b1ce30cbf4cdab5>@@AEAV<lambda_876a65b173b8412d3a47c70a915b0cf4>@@V<lambda_41932305e351933ebe8f8be3ed8bb5dc>@@@?$__crt_seh_guarded_call@X@@QEAAX$$QEAV<lambda_72d1df2b273a38828b1ce30cbf4cdab5>@@AEAV<lambda_876a65b173b8412d3a47c70a915b0cf4>@@$$QEAV<lambda_41932305e351933ebe8f8be3ed8bb5dc>@@@Z@4HA 0000000180037e90     libucrt:per_thread_data.obj
 0004:00001e90       $pdata$?fin$0@?0???$?RV<lambda_c36588078e9f5dfd39652860aa6b3aaf>@@AEAV<lambda_ec61778202f4f5fc7e7711acc23c3bca>@@V<lambda_dc9d2797ccde5d239b4a0efae8ebd7db>@@@?$__crt_seh_guarded_call@P6AXH@Z@@QEAAP6AXH@Z$$QEAV<lambda_c36588078e9f5dfd39652860aa6b3aaf>@@AEAV<lambda_ec61778202f4f5fc7e7711acc23c3bca>@@$$QEAV<lambda_dc9d2797ccde5d239b4a0efae8ebd7db>@@@Z@4HA 0000000180037e90     libucrt:signal.obj
 0004:00001e90       $pdata$?fin$0@?0???$?RV<lambda_5e887d1dcbef67a5eb4283622ba103bf>@@AEAV<lambda_4466841279450cc726390878d4a41900>@@V<lambda_341c25c0346d94847f1f3c463c57e077>@@@?$__crt_seh_guarded_call@X@@QEAAX$$QEAV<lambda_5e887d1dcbef67a5eb4283622ba103bf>@@AEAV<lambda_4466841279450cc726390878d4a41900>@@$$QEAV<lambda_341c25c0346d94847f1f3c463c57e077>@@@Z@4HA 0000000180037e90     libucrt:per_thread_data.obj
 0004:00001e90       $pdata$?fin$0@?0???$?RV<lambda_b8c45f8f788dd370798f47cfe8ac3a86>@@AEAV<lambda_4e60a939b0d047cfe11ddc22648dfba9>@@V<lambda_332c3edc96d0294ec56c57d38c1cdfd5>@@@?$__crt_seh_guarded_call@H@@QEAAH$$QEAV<lambda_b8c45f8f788dd370798f47cfe8ac3a86>@@AEAV<lambda_4e60a939b0d047cfe11ddc22648dfba9>@@$$QEAV<lambda_332c3edc96d0294ec56c57d38c1cdfd5>@@@Z@4HA 0000000180037e90     libucrt:onexit.obj
 0004:00001e9c       $pdata$?fin$0@?0???$?RV<lambda_e24bbb7b643b32fcea6fa61b31d4c984>@@AEAV<lambda_275893d493268fdec8709772e3fcec0e>@@V<lambda_9d71df4d7cf3f480f8d633942495c3b0>@@@?$__crt_seh_guarded_call@H@@QEAAH$$QEAV<lambda_e24bbb7b643b32fcea6fa61b31d4c984>@@AEAV<lambda_275893d493268fdec8709772e3fcec0e>@@$$QEAV<lambda_9d71df4d7cf3f480f8d633942495c3b0>@@@Z@4HA 0000000180037e9c     libucrt:onexit.obj
 0004:00001ea8       $pdata$?fin$0@?0???$?RV<lambda_7a5ef57ff966f610505f1d28a3d40618>@@AEAV<lambda_b721fa326cdb32351d23dfa67958c160>@@V<lambda_5e0fb27672408a07956fe59e48ccb2aa>@@@?$__crt_seh_guarded_call@H@@QEAAH$$QEAV<lambda_7a5ef57ff966f610505f1d28a3d40618>@@AEAV<lambda_b721fa326cdb32351d23dfa67958c160>@@$$QEAV<lambda_5e0fb27672408a07956fe59e48ccb2aa>@@@Z@4HA 0000000180037ea8     libucrt:setvbuf.obj
 0004:00001ea8       $pdata$?fin$0@?0???$?RV<lambda_7b91131dde12e1c3dfc74ff76b3f2eac>@@AEAV<lambda_dd75445284c072d0bd3768540cc698fa>@@V<lambda_16bc4ecb55b4718497c16bceaea2ceaf>@@@?$__crt_seh_guarded_call@H@@QEAAH$$QEAV<lambda_7b91131dde12e1c3dfc74ff76b3f2eac>@@AEAV<lambda_dd75445284c072d0bd3768540cc698fa>@@$$QEAV<lambda_16bc4ecb55b4718497c16bceaea2ceaf>@@@Z@4HA 0000000180037ea8     libucrt:output.obj
 0004:00001eb4       $pdata$__tzset$fin$0       0000000180037eb4     libucrt:tzset.obj
 0004:00001eb4       $pdata$_isindst$fin$0      0000000180037eb4     libucrt:tzset.obj
 0004:00001ec0       $pdata$common_flush_all$fin$0 0000000180037ec0     libucrt:fflush.obj
 0004:00001ecc       $pdata$common_flush_all$fin$1 0000000180037ecc     libucrt:fflush.obj
 0004:00001ed8       $pdata$raise$fin$0         0000000180037ed8     libucrt:signal.obj
 0004:00001ee4       $pdata$__acrt_update_thread_locale_data$fin$0 0000000180037ee4     libucrt:locale_refcounting.obj
 0004:00001ee4       $pdata$__acrt_uninitialize_locale$fin$0 0000000180037ee4     libucrt:wsetlocale.obj
 0004:00001ef0       $pdata$__acrt_update_thread_multibyte_data$fin$0 0000000180037ef0     libucrt:mbctype.obj
 0004:00001efc       $pdata$?fin$0@?0???$common_getenv_s@D@@YAHQEA_KQEAD_KQEBD@Z@4HA 0000000180037efc     libucrt:getenv.obj
 0004:00001f08       $pdata$_fcloseall$fin$0    0000000180037f08     libucrt:closeall.obj
 0004:00001f14       $pdata$?fin$0@?0???$common_lseek@_J@@YA_JH_JH@Z@4HA 0000000180037f14     libucrt:lseek.obj
 0004:00001f14       $pdata$_write$fin$0        0000000180037f14     libucrt:write.obj
 0004:00001f20       $pdata$__acrt_lowio_ensure_fh_exists$fin$0 0000000180037f20     libucrt:osfinfo.obj
 0004:00001f20       $pdata$__acrt_initialize_lowio$fin$0 0000000180037f20     libucrt:ioinit.obj
 0004:00001f2c       $pdata$fclose$fin$0        0000000180037f2c     libucrt:fclose.obj
 0004:00001f2c       $pdata$fflush$fin$0        0000000180037f2c     libucrt:fflush.obj
 0004:00001f38       $pdata$?fin$0@?0???$?RV<lambda_b521505b218e5242e90febf6bfebc422>@@AEAV<lambda_6978c1fb23f02e42e1d9e99668cc68aa>@@V<lambda_314360699dd331753a4119843814e9a7>@@@?$__crt_seh_guarded_call@H@@QEAAH$$QEAV<lambda_b521505b218e5242e90febf6bfebc422>@@AEAV<lambda_6978c1fb23f02e42e1d9e99668cc68aa>@@$$QEAV<lambda_314360699dd331753a4119843814e9a7>@@@Z@4HA 0000000180037f38     libucrt:commit.obj
 0004:00001f38       $pdata$?fin$0@?0???$?RV<lambda_bfedae4ebbf01fab1bb6dcc6a9e276e0>@@AEAV<lambda_2fe9b910cf3cbf4a0ab98a02ba45b3ec>@@V<lambda_237c231691f317818eb88cc1d5d642d6>@@@?$__crt_seh_guarded_call@H@@QEAAH$$QEAV<lambda_bfedae4ebbf01fab1bb6dcc6a9e276e0>@@AEAV<lambda_2fe9b910cf3cbf4a0ab98a02ba45b3ec>@@$$QEAV<lambda_237c231691f317818eb88cc1d5d642d6>@@@Z@4HA 0000000180037f38     libucrt:close.obj
 0004:00001f44       $pdata$_ctrlfp$filt$0      0000000180037f44     libucrt:fpctrl.obj
 0004:00001f44       $pdata$common_control87$filt$0 0000000180037f44     libucrt:ieee.obj
 0004:00001f50       $pdata$_IsNonwritableInCurrentImage$filt$0 0000000180037f50     LIBCMT:pesect.obj
 0005:00000000       __guard_fids__             0000000180038000     libucrt:initialization.obj
 0005:00000060       __guard_fids___acrt_show_wide_message_box 0000000180038060     libucrt:crtmbox.obj
 0005:00000064       __guard_fids___acrt_initialize_ptd 0000000180038064     libucrt:per_thread_data.obj
 0005:00000068       __guard_fids_??$expand_argument_wildcards@D@@YAHQEAD0AEAV?$argument_list@D@?A0xca0879c4@@@Z 0000000180038068     libucrt:argv_wildcards.obj
 0005:0000006c       __guard_fids__             000000018003806c     libucrt:timeset_initializer.obj
 0005:00000070       __guard_fids__             0000000180038070     libucrt:stdio_initializer.obj
 0005:00000074       __guard_fids__             0000000180038074     libucrt:stdio_initializer.obj
 0005:00000078       __guard_fids__             0000000180038078     libucrt:locale_initializer.obj
 0005:0000007c       __guard_fids__             000000018003807c     libucrt:multibyte_initializer.obj
 0005:00000080       __guard_fids__             0000000180038080     libucrt:console_output_initializer.obj
 0005:00000084       __guard_fids__             0000000180038084     libucrt:fma3_initializer.obj
 0005:00000088       __guard_fids_?dllmain_crt_process_attach@@YAHQEAUHINSTANCE__@@QEAX@Z 0000000180038088     LIBCMT:dll_dllmain.obj
 0005:00000090       __guard_fids_?dllmain_dispatch@@YAHQEAUHINSTANCE__@@KQEAX@Z 0000000180038090     LIBCMT:dll_dllmain.obj
 0005:00000094       __guard_fids__             0000000180038094     LIBCMT:throw_bad_alloc.obj
 0005:0000009c       __guard_fids__             000000018003809c     LIBCMT:throw_bad_alloc.obj
 0005:000000a4       __guard_fids__             00000001800380a4     LIBCMT:throw_bad_alloc.obj
 0005:000000ac       __guard_fids__             00000001800380ac     LIBCMT:std_type_info_static.obj
 0005:000000b0       __guard_fids__             00000001800380b0     LIBCMT:guard_support.obj
 0005:000000b4       __guard_fids___vcrt_initialize_ptd 00000001800380b4     libvcruntime:per_thread_data.obj
 0006:00000060       $R000000                   0000000180039060     * linker generated manifest res *

 Exports

  ordinal    name

        1    _register_odbc_bindings_
